 IPMSG

 Timestamp is 4fc5fc2e (Wed May 30 18:53:34 2012)

 Preferred load address is 00400000

 Start         Length     Name                   Class
 0001:00000000 0004228aH .textbss                DATA
 0002:00000000 000884a1H .text                   CODE
 0002:000884b0 00001cebH .text$x                 CODE
 0002:0008a1a0 00001015H .text$yd                CODE
 0003:00000000 00000104H .CRT$XCA                DATA
 0003:00000104 00000104H .CRT$XCZ                DATA
 0003:00000208 00000104H .CRT$XIA                DATA
 0003:0000030c 00000113H .CRT$XIC                DATA
 0003:00000420 00000104H .CRT$XIY                DATA
 0003:00000524 00000104H .CRT$XIZ                DATA
 0003:00000628 00000104H .CRT$XPA                DATA
 0003:0000072c 00000109H .CRT$XPX                DATA
 0003:00000838 00000104H .CRT$XPXA               DATA
 0003:0000093c 00000104H .CRT$XPZ                DATA
 0003:00000a40 00000104H .CRT$XTA                DATA
 0003:00000b44 00000104H .CRT$XTZ                DATA
 0003:00000c50 00012570H .rdata                  DATA
 0003:000131c0 00000150H .rdata$debug            DATA
 0003:00013310 00000f22H .rdata$r                DATA
 0003:00014234 00000104H .rtc$IAA                DATA
 0003:00014338 00000104H .rtc$IZZ                DATA
 0003:0001443c 00000104H .rtc$TAA                DATA
 0003:00014540 00000104H .rtc$TZZ                DATA
 0003:00014648 00001a68H .xdata$x                DATA
 0003:000160b0 00000000H .edata                  DATA
 0004:00000000 00002d90H .data                   DATA
 0004:00002da0 00002510H .bss                    DATA
 0005:00000000 000000c8H .idata$2                DATA
 0005:000000c8 00000014H .idata$3                DATA
 0005:000000dc 000006b4H .idata$4                DATA
 0005:00000790 000006b4H .idata$5                DATA
 0005:00000e44 0000145cH .idata$6                DATA
 0006:00000000 00000a69H .rsrc$01                DATA
 0006:00000a70 00004c86H .rsrc$02                DATA

  Address         Publics by Value              Rva+Base       Lib:Object

 0000:00000000       __except_list              00000000     <absolute>
 0000:00000000       ___safe_se_handler_table   00000000     <absolute>
 0000:00000000       ___safe_se_handler_count   00000000     <absolute>
 0000:00000000       ___ImageBase               00400000     <linker-defined>
 0001:00000000       __enc$textbss$begin        00401000     <linker-defined>
 0001:0004228a       __enc$textbss$end          0044328a     <linker-defined>
 0002:00004790       ??0CBlowFish@@QAE@PBEH@Z   00448790 f   blowfish.obj
 0002:00004810       ??1CBlowFish@@QAE@XZ       00448810 f   blowfish.obj
 0002:00004860       ?Blowfish_encipher@CBlowFish@@AAEXPAK0@Z 00448860 f   blowfish.obj
 0002:00004ee0       ?Blowfish_decipher@CBlowFish@@AAEXPAK0@Z 00448ee0 f   blowfish.obj
 0002:00005560       ?Initialize@CBlowFish@@QAEXPBEH@Z 00449560 f   blowfish.obj
 0002:000057f0       ?GetOutputLength@CBlowFish@@QAEKKH@Z 004497f0 f   blowfish.obj
 0002:00005830       ?Encrypt@CBlowFish@@QAEKPBEPAEKH_J@Z 00449830 f   blowfish.obj
 0002:000059b0       ?change_order@@YAXPAK@Z    004499b0 f i blowfish.obj
 0002:00005a00       ?Decrypt@CBlowFish@@QAEKPBEPAEKH_J@Z 00449a00 f   blowfish.obj
 0002:00005ba0       ??0Cfg@@QAE@KH@Z           00449ba0 f   cfg.obj
 0002:00005ce0       ??0PubKey@@QAE@XZ          00449ce0 f i cfg.obj
 0002:00005d20       ??1PubKey@@QAE@XZ          00449d20 f i cfg.obj
 0002:00005d50       ?UnSet@PubKey@@QAEXXZ      00449d50 f i cfg.obj
 0002:00005da0       ??0TBroadcastList@@QAE@XZ  00449da0 f i cfg.obj
 0002:00005dd0       ??1Cfg@@QAE@XZ             00449dd0 f   cfg.obj
 0002:00005f10       ??1TBroadcastList@@QAE@XZ  00449f10 f i cfg.obj
 0002:00005f40       ?ReadRegistry@Cfg@@QAEHXZ  00449f40 f   cfg.obj
 0002:00008200       ?CreateKey@TRegistry@@QAEHPBD@Z 0044c200 f i cfg.obj
 0002:00008230       ??0Host@@QAE@XZ            0044c230 f i cfg.obj
 0002:00008270       ?Enable@THosts@@QAEXW4Kind@1@H@Z 0044c270 f i cfg.obj
 0002:000082a0       ?SetHostRaw@TBroadcastList@@QAEXPBDK@Z 0044c2a0 f i cfg.obj
 0002:00008360       ??0TBroadcastObj@@QAE@PBDK@Z 0044c360 f i cfg.obj
 0002:000083a0       ?SetItem@@YAXPAIHH@Z       0044c3a0 f i cfg.obj
 0002:00008400       ?ReadFontRegistry@Cfg@@IAEHPAVTRegistry@@PADPAUtagLOGFONTA@@@Z 0044c400 f   cfg.obj
 0002:00008610       ?WriteRegistry@Cfg@@QAEHH@Z 0044c610 f   cfg.obj
 0002:00009b40       ?HostCnt@THosts@@QAEHXZ    0044db40 f i cfg.obj
 0002:00009b60       ?GetHost@THosts@@QAEPAUHost@@HW4Kind@1@@Z 0044db60 f i cfg.obj
 0002:00009b90       ?Host@TBroadcastObj@@QAEPBDXZ 0044db90 f i cfg.obj
 0002:00009bb0       ?Top@TBroadcastList@@QAEPAVTBroadcastObj@@XZ 0044dbb0 f i cfg.obj
 0002:00009be0       ?Next@TBroadcastList@@QAEPAVTBroadcastObj@@PAV2@@Z 0044dbe0 f i cfg.obj
 0002:00009c10       ?WriteFontRegistry@Cfg@@IAEHPAVTRegistry@@PADPAUtagLOGFONTA@@@Z 0044dc10 f   cfg.obj
 0002:00009dc0       ?GetRegName@Cfg@@QAEXPADKH@Z 0044ddc0 f   cfg.obj
 0002:00009e60       ??0TMsgApp@@QAE@PAUHINSTANCE__@@PADH@Z 0044de60 f   Ipmsg.obj
 0002:00009f00       ??_ETMsgApp@@UAEPAXI@Z     0044df00 f i Ipmsg.obj
 0002:00009f00       ??_GTMsgApp@@UAEPAXI@Z     0044df00 f i Ipmsg.obj
 0002:00009f50       ??1TMsgApp@@UAE@XZ         0044df50 f   Ipmsg.obj
 0002:00009f80       ?InitWindow@TMsgApp@@UAEXXZ 0044df80 f   Ipmsg.obj
 0002:0000a5f0       ?strchr@@YAPADPADH@Z       0044e5f0 f i Ipmsg.obj
 0002:0000a620       _WinMain@16                0044e620 f   Ipmsg.obj
 0002:0000a670       ??0TLogDlg@@QAE@PAUCfg@@PAVTWin@@@Z 0044e670 f   Logdlg.obj
 0002:0000a6c0       ?GetParent@TWin@@UAEPAV1@XZ 0044e6c0 f i Logdlg.obj
 0002:0000a6e0       ??_ETLogDlg@@UAEPAXI@Z     0044e6e0 f i Logdlg.obj
 0002:0000a6e0       ??_GTLogDlg@@UAEPAXI@Z     0044e6e0 f i Logdlg.obj
 0002:0000a730       ??1TLogDlg@@UAE@XZ         0044e730 f i Logdlg.obj
 0002:0000a760       ?EvCommand@TLogDlg@@UAEHGGJ@Z 0044e760 f   Logdlg.obj
 0002:0000a9c0       ??0OpenFileDlg@@QAE@PAVTWin@@W4Mode@0@P6GIPAUHWND__@@IIJ@Z@Z 0044e9c0 f i Logdlg.obj
 0002:0000aa00       ?EvCreate@TLogDlg@@UAEHJ@Z 0044ea00 f   Logdlg.obj
 0002:0000ab30       ?SetData@TLogDlg@@IAEXXZ   0044eb30 f   Logdlg.obj
 0002:0000ae50       ?GetData@TLogDlg@@IAEXXZ   0044ee50 f   Logdlg.obj
 0002:0000b1a0       ?OpenSoundFileDlg@TLogDlg@@QAEHXZ 0044f1a0 f   Logdlg.obj
 0002:0000b2c0       ??0LogMng@@QAE@PAUCfg@@@Z  0044f2c0 f   Logmng.obj
 0002:0000b2f0       ?WriteSendStart@LogMng@@QAEHXZ 0044f2f0 f   Logmng.obj
 0002:0000b320       ?WriteSendHead@LogMng@@QAEHPBD@Z 0044f320 f   Logmng.obj
 0002:0000b390       ?WriteSendMsg@LogMng@@QAEHPBDKPAUShareInfo@@@Z 0044f390 f   Logmng.obj
 0002:0000b3d0       ?WriteRecvMsg@LogMng@@QAEHPAUMsgBuf@@PAVTHosts@@PAUShareInfo@@@Z 0044f3d0 f   Logmng.obj
 0002:0000b4f0       ?WriteStart@LogMng@@QAEHXZ 0044f4f0 f   Logmng.obj
 0002:0000b520       ?WriteMsg@LogMng@@QAEHPBDKPAUShareInfo@@@Z 0044f520 f   Logmng.obj
 0002:0000b870       ?Fname@FileInfo@@QAEPBDXZ  0044f870 f i Logmng.obj
 0002:0000b8b0       ?Write@LogMng@@IAEHPBD@Z   0044f8b0 f   Logmng.obj
 0002:0000b990       ?StrictLogFile@LogMng@@SAXPAD@Z 0044f990 f   Logmng.obj
 0002:0000ba50       ?strstr@@YAPADPADPBD@Z     0044fa50 f i Logmng.obj
 0002:0000ba80       ??0TMainWin@@QAE@KHPAVTWin@@@Z 0044fa80 f   Mainwin.obj
 0002:0000c0b0       ?GetStatus@MsgMng@@QAEHXZ  004500b0 f i Mainwin.obj
 0002:0000c0d0       ??_GTMainWin@@UAEPAXI@Z    004500d0 f i Mainwin.obj
 0002:0000c0d0       ??_ETMainWin@@UAEPAXI@Z    004500d0 f i Mainwin.obj
 0002:0000c120       ??1TMainWin@@UAE@XZ        00450120 f   Mainwin.obj
 0002:0000c1a0       ?Terminate@TMainWin@@IAEXXZ 004501a0 f   Mainwin.obj
 0002:0000c460       ?EvCreate@TMainWin@@UAEHJ@Z 00450460 f   Mainwin.obj
 0002:0000c630       ?EvClose@TMainWin@@UAEHXZ  00450630 f   Mainwin.obj
 0002:0000c670       ?EvTimer@TMainWin@@UAEHIP6GXPAUHWND__@@IIK@Z@Z 00450670 f   Mainwin.obj
 0002:0000ca00       ?Addr@TBroadcastObj@@QAEKH@Z 00450a00 f i Mainwin.obj
 0002:0000ca60       ?EvCommand@TMainWin@@UAEHGGJ@Z 00450a60 f   Mainwin.obj
 0002:0000cd80       ?EvSysCommand@TMainWin@@UAEHIUtagPOINTS@@@Z 00450d80 f   Mainwin.obj
 0002:0000cf00       ?EvEndSession@TMainWin@@UAEHHH@Z 00450f00 f   Mainwin.obj
 0002:0000cf40       ?EvQueryOpen@TMainWin@@UAEHXZ 00450f40 f   Mainwin.obj
 0002:0000cf90       ?EvHotKey@TMainWin@@UAEHH@Z 00450f90 f   Mainwin.obj
 0002:0000d000       ?EventButton@TMainWin@@UAEHIHUtagPOINTS@@@Z 00451000 f   Mainwin.obj
 0002:0000d2e0       ?EventInitMenu@TMainWin@@UAEHIPAUHMENU__@@IH@Z 004512e0 f   Mainwin.obj
 0002:0000d540       ?AddAbsenceMenu@TMainWin@@IAEHPAUHMENU__@@H@Z 00451540 f   Mainwin.obj
 0002:0000d750       ?EventUser@TMainWin@@UAEHIIJ@Z 00451750 f   Mainwin.obj
 0002:0000da50       ?EntryHost@TMainWin@@IAEXXZ 00451a50 f   Mainwin.obj
 0002:0000db60       ?ExitHost@TMainWin@@IAEXXZ 00451b60 f   Mainwin.obj
 0002:0000dbb0       ?IsLastPacket@TMainWin@@IAEHPAUMsgBuf@@@Z 00451bb0 f   Mainwin.obj
 0002:0000dc60       ?UdpEvent@TMainWin@@IAEHJ@Z 00451c60 f   Mainwin.obj
 0002:0000e1a0       ?GetHostByName@THosts@@QAEPAUHost@@PAUHostSub@@@Z 004521a0 f i Mainwin.obj
 0002:0000e1f0       ?GetLocalHost@MsgMng@@QAEPAUHostSub@@XZ 004521f0 f i Mainwin.obj
 0002:0000e210       ?TcpEvent@TMainWin@@IAEHIJ@Z 00452210 f   Mainwin.obj
 0002:0000e380       ?FindSendFileObj@TMainWin@@IAEPAUSendFileObj@@I@Z 00452380 f i Mainwin.obj
 0002:0000e400       ?CheckConnectInfo@TMainWin@@IAEHPAUConnectInfo@@@Z 00452400 f   Mainwin.obj
 0002:0000e4c0       ?Top@ShareMng@@QAEPAUShareInfo@@XZ 004524c0 f i Mainwin.obj
 0002:0000e510       ?Next@ShareMng@@QAEPAUShareInfo@@PAU2@@Z 00452510 f i Mainwin.obj
 0002:0000e560       ?StartSendFile@TMainWin@@IAEHI@Z 00452560 f   Mainwin.obj
 0002:0000eae0       ?OpenSendFile@TMainWin@@IAEHPBDPAUSendFileObj@@@Z 00452ae0 f   Mainwin.obj
 0002:0000ed20       ?CloseSendFile@TMainWin@@IAEHPAUSendFileObj@@@Z 00452d20 f   Mainwin.obj
 0002:0000edc0       ?SendFileThread@TMainWin@@KGKPAX@Z 00452dc0 f   Mainwin.obj
 0002:0000f140       ?MakeDirHeader@@YAHPAUSendFileObj@@H@Z 00453140 f   Mainwin.obj
 0002:0000f330       ?FileTime2UnixTime@@YA_JPAU_FILETIME@@@Z 00453330 f i Mainwin.obj
 0002:0000f370       ?SendDirFile@TMainWin@@IAEHPAUSendFileObj@@@Z 00453370 f   Mainwin.obj
 0002:0000fb10       ?SendFile@TMainWin@@IAEHPAUSendFileObj@@@Z 00453b10 f   Mainwin.obj
 0002:0000fe10       ?EndSendFile@TMainWin@@IAEHPAUSendFileObj@@@Z 00453e10 f   Mainwin.obj
 0002:0000ff50       ?MsgBrEntry@TMainWin@@IAEXPAUMsgBuf@@@Z 00453f50 f   Mainwin.obj
 0002:00010060       ?SetAnswerQueue@TMainWin@@IAEHPAUAddrObj@@@Z 00454060 f   Mainwin.obj
 0002:00010160       ?ExecuteAnsQueue@TMainWin@@IAEXXZ 00454160 f   Mainwin.obj
 0002:00010210       ?MsgBrExit@TMainWin@@IAEXPAUMsgBuf@@@Z 00454210 f   Mainwin.obj
 0002:000102e0       ?MsgAnsEntry@TMainWin@@IAEXPAUMsgBuf@@@Z 004542e0 f   Mainwin.obj
 0002:00010340       ?MsgBrAbsence@TMainWin@@IAEXPAUMsgBuf@@@Z 00454340 f   Mainwin.obj
 0002:000103a0       ?MsgSendMsg@TMainWin@@IAEXPAUMsgBuf@@@Z 004543a0 f   Mainwin.obj
 0002:00010660       ?GetHostByAddr@THosts@@QAEPAUHost@@PAUHostSub@@@Z 00454660 f i Mainwin.obj
 0002:000106b0       ?GetCreateCnt@TRecvDlg@@SAHXZ 004546b0 f i Mainwin.obj
 0002:000106d0       ?MsgRecvMsg@TMainWin@@IAEXPAUMsgBuf@@@Z 004546d0 f   Mainwin.obj
 0002:00010700       ?MsgReadMsg@TMainWin@@IAEXPAUMsgBuf@@@Z 00454700 f   Mainwin.obj
 0002:00010730       ?MsgBrIsGetList@TMainWin@@IAEXPAUMsgBuf@@@Z 00454730 f   Mainwin.obj
 0002:00010820       ?MsgOkGetList@TMainWin@@IAEXPAUMsgBuf@@@Z 00454820 f   Mainwin.obj
 0002:00010880       ?MsgGetList@TMainWin@@IAEXPAUMsgBuf@@@Z 00454880 f   Mainwin.obj
 0002:000108c0       ?MsgAnsList@TMainWin@@IAEXPAUMsgBuf@@@Z 004548c0 f   Mainwin.obj
 0002:00010910       ?MsgGetInfo@TMainWin@@IAEXPAUMsgBuf@@@Z 00454910 f   Mainwin.obj
 0002:00010990       ?MsgSendInfo@TMainWin@@IAEXPAUMsgBuf@@@Z 00454990 f   Mainwin.obj
 0002:000109c0       ?MsgGetPubKey@TMainWin@@IAEXPAUMsgBuf@@@Z 004549c0 f   Mainwin.obj
 0002:00010b70       ?Key@PubKey@@QAEPBEXZ      00454b70 f i Mainwin.obj
 0002:00010b90       ?KeyLen@PubKey@@QAEHXZ     00454b90 f i Mainwin.obj
 0002:00010bb0       ?Exponent@PubKey@@QAEHXZ   00454bb0 f i Mainwin.obj
 0002:00010bd0       ?Capa@PubKey@@QAEHXZ       00454bd0 f i Mainwin.obj
 0002:00010bf0       ?MsgAnsPubKey@TMainWin@@IAEXPAUMsgBuf@@@Z 00454bf0 f   Mainwin.obj
 0002:00010eb0       ?MsgInfoSub@TMainWin@@IAEXPAUMsgBuf@@@Z 00454eb0 f   Mainwin.obj
 0002:00011570       ?strrchr@@YAPADPADH@Z      00455570 f i Mainwin.obj
 0002:000115a0       ?GetCreateCnt@TMsgDlg@@SAHXZ 004555a0 f i Mainwin.obj
 0002:000115c0       ?MsgGetAbsenceInfo@TMainWin@@IAEXPAUMsgBuf@@@Z 004555c0 f   Mainwin.obj
 0002:00011650       ?MsgSendAbsenceInfo@TMainWin@@IAEXPAUMsgBuf@@@Z 00455650 f   Mainwin.obj
 0002:00011680       ?MsgReleaseFiles@TMainWin@@IAEXPAUMsgBuf@@@Z 00455680 f   Mainwin.obj
 0002:000116e0       ?SendDlgOpen@TMainWin@@IAEHPAUHWND__@@PAUMsgBuf@@@Z 004556e0 f   Mainwin.obj
 0002:000119b0       ?GetRecvWnd@TSendDlg@@QAEPAUHWND__@@XZ 004559b0 f i Mainwin.obj
 0002:000119d0       ?SendDlgHide@TMainWin@@IAEXPAVTSendDlg@@@Z 004559d0 f   Mainwin.obj
 0002:00011b20       ?SendDlgExit@TMainWin@@IAEXPAVTSendDlg@@@Z 00455b20 f   Mainwin.obj
 0002:00011bc0       ?RecvDlgOpen@TMainWin@@IAEHPAUMsgBuf@@@Z 00455bc0 f   Mainwin.obj
 0002:00011e70       ?Status@TRecvDlg@@QAEHXZ   00455e70 f i Mainwin.obj
 0002:00011ea0       ?RecvDlgExit@TMainWin@@IAEXPAVTRecvDlg@@@Z 00455ea0 f   Mainwin.obj
 0002:00011f20       ?MsgDlgExit@TMainWin@@IAEXPAVTMsgDlg@@@Z 00455f20 f   Mainwin.obj
 0002:00011fa0       ?MiscDlgOpen@TMainWin@@IAEXPAVTDlg@@@Z 00455fa0 f   Mainwin.obj
 0002:00012010       ?TaskBar@TMainWin@@IAEHHPAUHICON__@@PBD@Z 00456010 f   Mainwin.obj
 0002:00012100       ?Popup@TMainWin@@IAEXI@Z   00456100 f   Mainwin.obj
 0002:000122f0       ?PopupCheck@TMainWin@@IAEHXZ 004562f0 f   Mainwin.obj
 0002:00012470       ?ActiveChildWindow@TMainWin@@IAEXH@Z 00456470 f   Mainwin.obj
 0002:00012560       ?AddHost@TMainWin@@IAEXPAUHostSub@@KPAD1@Z 00456560 f   Mainwin.obj
 0002:00012e70       ?RefCnt@Host@@QAEHH@Z      00456e70 f i Mainwin.obj
 0002:00012eb0       ??_GHost@@QAEPAXI@Z        00456eb0 f i Mainwin.obj
 0002:00012f00       ??1Host@@QAE@XZ            00456f00 f i Mainwin.obj
 0002:00012f40       ?SetHostData@TMainWin@@IAEXPAUHost@@PAUHostSub@@K_JPAD3H@Z 00456f40 f i Mainwin.obj
 0002:00012ff0       ?DelAllHost@TMainWin@@IAEXXZ 00456ff0 f   Mainwin.obj
 0002:00013100       ?DelHost@TMainWin@@IAEXPAUHostSub@@@Z 00457100 f   Mainwin.obj
 0002:00013150       ?DelHostSub@TMainWin@@IAEXPAUHost@@@Z 00457150 f   Mainwin.obj
 0002:00013370       ?RefreshHost@TMainWin@@IAEXH@Z 00457370 f   Mainwin.obj
 0002:00013550       ?SetCaption@TMainWin@@IAEXXZ 00457550 f   Mainwin.obj
 0002:00013610       ?BroadcastEntry@TMainWin@@IAEXK@Z 00457610 f   Mainwin.obj
 0002:000138c0       ?BroadcastEntrySub@TMainWin@@IAEXKHK@Z 004578c0 f   Mainwin.obj
 0002:00013930       ?BroadcastEntrySub@TMainWin@@IAEXPAUHostSub@@K@Z 00457930 f   Mainwin.obj
 0002:000139e0       ?ReverseIcon@TMainWin@@IAEXH@Z 004579e0 f   Mainwin.obj
 0002:00013a70       ?SetIcon@TMainWin@@IAEXPAUHICON__@@@Z 00457a70 f   Mainwin.obj
 0002:00013af0       ?SendHostList@TMainWin@@IAEXPAUMsgBuf@@@Z 00457af0 f   Mainwin.obj
 0002:00013e20       ?AddHostList@TMainWin@@IAEXPAUMsgBuf@@@Z 00457e20 f   Mainwin.obj
 0002:000141d0       ?LogOpen@TMainWin@@IAEXXZ  004581d0 f   Mainwin.obj
 0002:000142c0       ?HostStatus@TMainWin@@IAEKXZ 004582c0 f   Mainwin.obj
 0002:00014390       ?IsAvailableTCP@MsgMng@@QAEHXZ 00458390 f i Mainwin.obj
 0002:000143c0       ?InitIcon@TMainWin@@IAEXXZ 004583c0 f   Mainwin.obj
 0002:000144b0       ?GetIPMsgIcon@TMainWin@@SAPAUHICON__@@XZ 004584b0 f   Mainwin.obj
 0002:000144d0       ?ActiveListDlg@TMainWin@@IAEXPAVTList@@H@Z 004584d0 f   Mainwin.obj
 0002:000145a0       ?DeleteListDlg@TMainWin@@IAEXPAVTList@@@Z 004585a0 f   Mainwin.obj
 0002:00014670       ?ActiveDlg@TMainWin@@IAEXPAVTDlg@@H@Z 00458670 f   Mainwin.obj
 0002:000146e0       ?GetNickNameEx@TMainWin@@IAEPADXZ 004586e0 f   Mainwin.obj
 0002:00014840       ?SetupCryptAPI@TMainWin@@IAEHXZ 00458840 f   Mainwin.obj
 0002:00014d30       ?SetupCryptAPICore@TMainWin@@IAEHH@Z 00458d30 f   Mainwin.obj
 0002:00015410       ?KeyBlob@PubKey@@QAEHPAEHPAH@Z 00459410 f i Mainwin.obj
 0002:000154e0       ?KeyBlobLen@PubKey@@QAEHXZ 004594e0 f i Mainwin.obj
 0002:00015510       ?SetupRSAKey@TMainWin@@IAEHHH@Z 00459510 f   Mainwin.obj
 0002:00015c30       ?SetByBlob@PubKey@@QAEXPAEH@Z 00459c30 f i Mainwin.obj
 0002:00015cd0       ?LoadPrivBlob@TMainWin@@IAEHPAEPAH@Z 00459cd0 f   Mainwin.obj
 0002:00016100       ??1TPasswordDlg@@UAE@XZ    0045a100 f i Mainwin.obj
 0002:00016130       ?StorePrivBlob@TMainWin@@IAEHPAEH@Z 0045a130 f   Mainwin.obj
 0002:000166e0       ?ControlIME@TMainWin@@IAEXPAVTWin@@H@Z 0045a6e0 f   Mainwin.obj
 0002:00016890       ?GetMainWnd@@YAPAUHWND__@@XZ 0045a890 f   Mainwin.obj
 0002:000168b0       ?GetVerionStr@@YAPADXZ     0045a8b0 f   Mainwin.obj
 0002:000168e0       ??0TMsgDlg@@QAE@PAVTWin@@@Z 0045a8e0 f   Miscdlg.obj
 0002:00016940       ??0TListDlg@@QAE@IPAVTWin@@@Z 0045a940 f i Miscdlg.obj
 0002:00016980       ??_ETListDlg@@UAEPAXI@Z    0045a980 f i Miscdlg.obj
 0002:00016980       ??_GTListDlg@@UAEPAXI@Z    0045a980 f i Miscdlg.obj
 0002:000169d0       ??1TListDlg@@UAE@XZ        0045a9d0 f i Miscdlg.obj
 0002:00016a00       ??_ETMsgDlg@@UAEPAXI@Z     0045aa00 f i Miscdlg.obj
 0002:00016a00       ??_GTMsgDlg@@UAEPAXI@Z     0045aa00 f i Miscdlg.obj
 0002:00016a50       ??1TMsgDlg@@UAE@XZ         0045aa50 f   Miscdlg.obj
 0002:00016a90       ?Create@TMsgDlg@@UAEHPAD0H@Z 0045aa90 f   Miscdlg.obj
 0002:00016c40       ?EvCommand@TMsgDlg@@UAEHGGJ@Z 0045ac40 f   Miscdlg.obj
 0002:00016d00       ?EvCreate@TMsgDlg@@UAEHJ@Z 0045ad00 f   Miscdlg.obj
 0002:00016e80       ??0TAboutDlg@@QAE@PAVTWin@@@Z 0045ae80 f   Miscdlg.obj
 0002:00016ec0       ??_ETAboutDlg@@UAEPAXI@Z   0045aec0 f i Miscdlg.obj
 0002:00016ec0       ??_GTAboutDlg@@UAEPAXI@Z   0045aec0 f i Miscdlg.obj
 0002:00016f10       ??1TAboutDlg@@UAE@XZ       0045af10 f i Miscdlg.obj
 0002:00016f40       ?EvCreate@TAboutDlg@@UAEHJ@Z 0045af40 f   Miscdlg.obj
 0002:000170d0       ?EvCommand@TAboutDlg@@UAEHGGJ@Z 0045b0d0 f   Miscdlg.obj
 0002:00017180       ??0TListViewEx@@QAE@PAVTWin@@@Z 0045b180 f   Miscdlg.obj
 0002:000171d0       ??_ETListViewEx@@UAEPAXI@Z 0045b1d0 f i Miscdlg.obj
 0002:000171d0       ??_GTListViewEx@@UAEPAXI@Z 0045b1d0 f i Miscdlg.obj
 0002:00017220       ??1TListViewEx@@UAE@XZ     0045b220 f i Miscdlg.obj
 0002:00017250       ??1TSubClassCtl@@UAE@XZ    0045b250 f i Miscdlg.obj
 0002:00017280       ??1TSubClass@@UAE@XZ       0045b280 f i Miscdlg.obj
 0002:000172b0       ?EventFocus@TListViewEx@@UAEHIPAUHWND__@@@Z 0045b2b0 f   Miscdlg.obj
 0002:00017430       ?EventButton@TListViewEx@@UAEHIHUtagPOINTS@@@Z 0045b430 f   Miscdlg.obj
 0002:000174b0       ?EventUser@TListViewEx@@UAEHIIJ@Z 0045b4b0 f   Miscdlg.obj
 0002:00017580       ??0TEditSub@@QAE@PAUCfg@@PAVTWin@@@Z 0045b580 f   Miscdlg.obj
 0002:000175d0       ??_ETEditSub@@UAEPAXI@Z    0045b5d0 f i Miscdlg.obj
 0002:000175d0       ??_GTEditSub@@UAEPAXI@Z    0045b5d0 f i Miscdlg.obj
 0002:00017620       ??1TEditSub@@UAE@XZ        0045b620 f i Miscdlg.obj
 0002:00017650       ?EventButton@TEditSub@@UAEHIHUtagPOINTS@@@Z 0045b650 f   Miscdlg.obj
 0002:000176b0       ?EventUser@TEditSub@@UAEHIIJ@Z 0045b6b0 f   Miscdlg.obj
 0002:00017b30       ??0TSeparateSub@@QAE@PAVTWin@@@Z 0045bb30 f   Miscdlg.obj
 0002:00017b80       ??_ETSeparateSub@@UAEPAXI@Z 0045bb80 f i Miscdlg.obj
 0002:00017b80       ??_GTSeparateSub@@UAEPAXI@Z 0045bb80 f i Miscdlg.obj
 0002:00017bd0       ??1TSeparateSub@@UAE@XZ    0045bbd0 f i Miscdlg.obj
 0002:00017c00       ?EvSetCursor@TSeparateSub@@UAEHPAUHWND__@@GG@Z 0045bc00 f   Miscdlg.obj
 0002:00017c30       ?EvNcHitTest@TSeparateSub@@UAEHUtagPOINTS@@PAJ@Z 0045bc30 f   Miscdlg.obj
 0002:00017c60       ?EventButton@TSeparateSub@@UAEHIHUtagPOINTS@@@Z 0045bc60 f   Miscdlg.obj
 0002:00017cd0       ??0TAbsenceDlg@@QAE@PAUCfg@@PAVTWin@@@Z 0045bcd0 f   Miscdlg.obj
 0002:00017d30       ??_GTAbsenceDlg@@UAEPAXI@Z 0045bd30 f i Miscdlg.obj
 0002:00017d30       ??_ETAbsenceDlg@@UAEPAXI@Z 0045bd30 f i Miscdlg.obj
 0002:00017d80       ??1TAbsenceDlg@@UAE@XZ     0045bd80 f   Miscdlg.obj
 0002:00017db0       ?EvCreate@TAbsenceDlg@@UAEHJ@Z 0045bdb0 f   Miscdlg.obj
 0002:00017fe0       ?EvNcDestroy@TAbsenceDlg@@UAEHXZ 0045bfe0 f   Miscdlg.obj
 0002:00018040       ?EvCommand@TAbsenceDlg@@UAEHGGJ@Z 0045c040 f   Miscdlg.obj
 0002:000184c0       ?EventUser@TAbsenceDlg@@UAEHIIJ@Z 0045c4c0 f   Miscdlg.obj
 0002:000185b0       ?SetData@TAbsenceDlg@@IAEXXZ 0045c5b0 f   Miscdlg.obj
 0002:00018710       ?GetData@TAbsenceDlg@@IAEXXZ 0045c710 f   Miscdlg.obj
 0002:00018850       ??0TSortDlg@@QAE@PAUCfg@@PAVTWin@@@Z 0045c850 f   Miscdlg.obj
 0002:000188a0       ??_ETSortDlg@@UAEPAXI@Z    0045c8a0 f i Miscdlg.obj
 0002:000188a0       ??_GTSortDlg@@UAEPAXI@Z    0045c8a0 f i Miscdlg.obj
 0002:000188f0       ??1TSortDlg@@UAE@XZ        0045c8f0 f i Miscdlg.obj
 0002:00018920       ?Exec@TSortDlg@@UAEHXZ     0045c920 f   Miscdlg.obj
 0002:00018980       ?EvCommand@TSortDlg@@UAEHGGJ@Z 0045c980 f   Miscdlg.obj
 0002:00018a40       ?EvCreate@TSortDlg@@UAEHJ@Z 0045ca40 f   Miscdlg.obj
 0002:00018b50       ?SetData@TSortDlg@@IAEXXZ  0045cb50 f   Miscdlg.obj
 0002:00018f00       ?GetItem@@YAHIH@Z          0045cf00 f i Miscdlg.obj
 0002:00018f30       ?GetData@TSortDlg@@IAEXXZ  0045cf30 f   Miscdlg.obj
 0002:00019360       ??0TUrlDlg@@QAE@PAUCfg@@PAVTWin@@@Z 0045d360 f   Miscdlg.obj
 0002:00019410       ??_GTUrlDlg@@UAEPAXI@Z     0045d410 f i Miscdlg.obj
 0002:00019410       ??_ETUrlDlg@@UAEPAXI@Z     0045d410 f i Miscdlg.obj
 0002:00019460       ??1TUrlDlg@@UAE@XZ         0045d460 f   Miscdlg.obj
 0002:00019490       ?EvCreate@TUrlDlg@@UAEHJ@Z 0045d490 f   Miscdlg.obj
 0002:000195e0       ?EvNcDestroy@TUrlDlg@@UAEHXZ 0045d5e0 f   Miscdlg.obj
 0002:00019650       ?EvCommand@TUrlDlg@@UAEHGGJ@Z 0045d650 f   Miscdlg.obj
 0002:00019980       ?SetCurrentData@TUrlDlg@@IAEXXZ 0045d980 f   Miscdlg.obj
 0002:000199f0       ?SetData@TUrlDlg@@IAEXXZ   0045d9f0 f   Miscdlg.obj
 0002:00019b70       ?GetData@TUrlDlg@@IAEXXZ   0045db70 f   Miscdlg.obj
 0002:00019cf0       ??0TPasswordDlg@@QAE@PAUCfg@@PAVTWin@@@Z 0045dcf0 f   Miscdlg.obj
 0002:00019d50       ??_ETPasswordDlg@@UAEPAXI@Z 0045dd50 f i Miscdlg.obj
 0002:00019d50       ??_GTPasswordDlg@@UAEPAXI@Z 0045dd50 f i Miscdlg.obj
 0002:00019da0       ??0TPasswordDlg@@QAE@PADPAVTWin@@@Z 0045dda0 f   Miscdlg.obj
 0002:00019e00       ?EvCommand@TPasswordDlg@@UAEHGGJ@Z 0045de00 f   Miscdlg.obj
 0002:00019f90       ?EvCreate@TPasswordDlg@@UAEHJ@Z 0045df90 f   Miscdlg.obj
 0002:0001a0d0       ??0TPasswdChangeDlg@@QAE@PAUCfg@@PAVTWin@@@Z 0045e0d0 f   Miscdlg.obj
 0002:0001a120       ??_ETPasswdChangeDlg@@UAEPAXI@Z 0045e120 f i Miscdlg.obj
 0002:0001a120       ??_GTPasswdChangeDlg@@UAEPAXI@Z 0045e120 f i Miscdlg.obj
 0002:0001a170       ??1TPasswdChangeDlg@@UAE@XZ 0045e170 f i Miscdlg.obj
 0002:0001a1a0       ?EvCommand@TPasswdChangeDlg@@UAEHGGJ@Z 0045e1a0 f   Miscdlg.obj
 0002:0001a3a0       ?EvCreate@TPasswdChangeDlg@@UAEHJ@Z 0045e3a0 f   Miscdlg.obj
 0002:0001a470       ?CheckPassword@@YAHPBD0@Z  0045e470 f   Miscdlg.obj
 0002:0001a4d0       ?MakePassword@@YAXPBDPAD@Z 0045e4d0 f   Miscdlg.obj
 0002:0001a530       ?strncpyz@@YAPADPADPBDH@Z  0045e530 f   Miscdlg.obj
 0002:0001a5b0       ?strncmpi@@YAHPBD0H@Z      0045e5b0 f   Miscdlg.obj
 0002:0001a670       ?SearchUrlObj@@YAPAUUrlObj@@PAVTList@@PAD@Z 0045e670 f   Miscdlg.obj
 0002:0001a6f0       ?SetDlgIcon@@YAXPAUHWND__@@@Z 0045e6f0 f   Miscdlg.obj
 0002:0001a740       ?MakeListString@@YAXPAUCfg@@PAUHostSub@@PAVTHosts@@PAD@Z 0045e740 f   Miscdlg.obj
 0002:0001a870       ?MakeListString@@YAXPAUCfg@@PAUHost@@PAD@Z 0045e870 f   Miscdlg.obj
 0002:0001aa50       ?SetImeOpenStatus@@YAHPAUHWND__@@H@Z 0045ea50 f   Miscdlg.obj
 0002:0001aa70       ?GetImeOpenStatus@@YAHPAUHWND__@@@Z 0045ea70 f   Miscdlg.obj
 0002:0001aa90       ?SetHotKey@@YAHPAUCfg@@@Z  0045ea90 f   Miscdlg.obj
 0002:0001ab90       ?IsSameHost@@YAHPAUHostSub@@0@Z 0045eb90 f   Miscdlg.obj
 0002:0001abf0       ?RectToWinPos@@YAXPBUtagRECT@@PAUWINPOS@@@Z 0045ebf0 f   Miscdlg.obj
 0002:0001ac50       ??0THosts@@QAE@XZ          0045ec50 f   Miscdlg.obj
 0002:0001acc0       ??1THosts@@QAE@XZ          0045ecc0 f   Miscdlg.obj
 0002:0001ad20       ?Cmp@THosts@@IAEHPAUHostSub@@0W4Kind@1@@Z 0045ed20 f   Miscdlg.obj
 0002:0001ae30       ?Search@THosts@@IAEPAUHost@@W4Kind@1@PAUHostSub@@PAH@Z 0045ee30 f   Miscdlg.obj
 0002:0001af20       ?AddHost@THosts@@QAEHPAUHost@@@Z 0045ef20 f   Miscdlg.obj
 0002:0001b0d0       ?DelHost@THosts@@QAEHPAUHost@@@Z 0045f0d0 f   Miscdlg.obj
 0002:0001b200       ?PriorityHostCnt@THosts@@QAEHHH@Z 0045f200 f   Miscdlg.obj
 0002:0001b2a0       ??0TFindDlg@@QAE@PAUCfg@@PAVTSendDlg@@@Z 0045f2a0 f   Miscdlg.obj
 0002:0001b300       ??_GTFindDlg@@UAEPAXI@Z    0045f300 f i Miscdlg.obj
 0002:0001b300       ??_ETFindDlg@@UAEPAXI@Z    0045f300 f i Miscdlg.obj
 0002:0001b350       ??1TFindDlg@@UAE@XZ        0045f350 f i Miscdlg.obj
 0002:0001b380       ?EvCommand@TFindDlg@@UAEHGGJ@Z 0045f380 f   Miscdlg.obj
 0002:0001b700       ?EvCreate@TFindDlg@@UAEHJ@Z 0045f700 f   Miscdlg.obj
 0002:0001b900       ?Exec@OpenFileDlg@@QAEHIPAD00@Z 0045f900 f   Miscdlg.obj
 0002:0001b9d0       ?Exec@OpenFileDlg@@QAEHPAD000@Z 0045f9d0 f   Miscdlg.obj
 0002:0001bd10       ?BrowseDirDlgProc@@YGHPAUHWND__@@IJJ@Z 0045fd10 f   Miscdlg.obj
 0002:0001bd60       ?BrowseDirDlg@@YAHPAVTWin@@PBD1PAD@Z 0045fd60 f   Miscdlg.obj
 0002:0001be40       ?GetLastErrorMsg@@YAHPADPAVTWin@@@Z 0045fe40 f   Miscdlg.obj
 0002:0001bf10       ?GetSockErrorMsg@@YAHPADPAVTWin@@@Z 0045ff10 f   Miscdlg.obj
 0002:0001bfe0       ?PathToFname@@YAHPBDPAD@Z  0045ffe0 f   Miscdlg.obj
 0002:0001c080       ?ForcePathToFname@@YAXPBDPAD@Z 00460080 f   Miscdlg.obj
 0002:0001c150       ?PathToDir@@YAHPBDPAD@Z    00460150 f   Miscdlg.obj
 0002:0001c250       ?IsSafePath@@YAHPBD0@Z     00460250 f   Miscdlg.obj
 0002:0001c2d0       ?MakePath@@YAHPADPBD1@Z    004602d0 f   Miscdlg.obj
 0002:0001c430       ?Time@@YA_JXZ              00460430 f   Miscdlg.obj
 0002:0001c490       ?Ctime@@YAPADPAU_SYSTEMTIME@@@Z 00460490 f   Miscdlg.obj
 0002:0001c540       ?hexstr2bin@@YAHPBDPAEHPAH@Z 00460540 f   Miscdlg.obj
 0002:0001c5f0       ?hexchar2char@@YAEE@Z      004605f0 f i Miscdlg.obj
 0002:0001c660       ?hexstr2bin_bigendian@@YAHPBDPAEHPAH@Z 00460660 f   Miscdlg.obj
 0002:0001c720       ?bin2hexstr@@YAXPBEHPAD@Z  00460720 f   Miscdlg.obj
 0002:0001c7c0       ?bin2hexstr_bigendian@@YAXPBEHPAD@Z 004607c0 f   Miscdlg.obj
 0002:0001c850       ?hex2ll@@YA_JPAD@Z         00460850 f   Miscdlg.obj
 0002:0001c970       ?MakeSizeString@@YAHPAD_JH@Z 00460970 f   Miscdlg.obj
 0002:0001cb40       ?separate_token@@YAPADPADDPAPAD@Z 00460b40 f   Miscdlg.obj
 0002:0001cc50       ?MakeHash@@YAXPBEHPAD@Z    00460c50 f   Miscdlg.obj
 0002:0001cd40       ?VerifyHash@@YAHPBEHPBD@Z  00460d40 f   Miscdlg.obj
 0002:0001cda0       ?ResolveAddr@@YAKPBD@Z     00460da0 f   Miscdlg.obj
 0002:0001ce20       ?Reset@TBroadcastList@@QAEXXZ 00460e20 f   Miscdlg.obj
 0002:0001ce90       ??_GTBroadcastObj@@QAEPAXI@Z 00460e90 f i Miscdlg.obj
 0002:0001cee0       ??1TBroadcastObj@@QAE@XZ   00460ee0 f i Miscdlg.obj
 0002:0001cf20       ??0MsgMng@@QAE@KHPAUCfg@@@Z 00460f20 f   Msgmng.obj
 0002:0001d100       ??1MsgMng@@QAE@XZ          00461100 f   Msgmng.obj
 0002:0001d130       ?WSockInit@MsgMng@@IAEHH@Z 00461130 f   Msgmng.obj
 0002:0001d570       ?WSockTerm@MsgMng@@IAEXXZ  00461570 f   Msgmng.obj
 0002:0001d5c0       ?CloseSocket@MsgMng@@QAEXXZ 004615c0 f   Msgmng.obj
 0002:0001d630       ?WSockReset@MsgMng@@IAEHXZ 00461630 f   Msgmng.obj
 0002:0001d660       ?Send@MsgMng@@QAEHPAUHostSub@@KH@Z 00461660 f   Msgmng.obj
 0002:0001d6e0       ?Send@MsgMng@@QAEHPAUHostSub@@KPBD1@Z 004616e0 f   Msgmng.obj
 0002:0001d730       ?Send@MsgMng@@QAEHKHKPBD0@Z 00461730 f   Msgmng.obj
 0002:0001d7c0       ?MakeMsg@MsgMng@@QAEKPADKPBD1PAH@Z 004617c0 f i Msgmng.obj
 0002:0001d810       ?MakePacketNo@MsgMng@@QAEKXZ 00461810 f i Msgmng.obj
 0002:0001d850       ?AsyncSelectRegist@MsgMng@@QAEHPAUHWND__@@@Z 00461850 f   Msgmng.obj
 0002:0001d8e0       ?Recv@MsgMng@@QAEHPAUMsgBuf@@@Z 004618e0 f   Msgmng.obj
 0002:0001d960       ?MakeMsg@MsgMng@@QAEKPADHKPBD1PAH@Z 00461960 f   Msgmng.obj
 0002:0001dab0       ?LocalNewLineToUnix@MsgMng@@SAHPBDPADH@Z 00461ab0 f   Msgmng.obj
 0002:0001db40       ?UnixNewLineToLocal@MsgMng@@SAHPBDPADH@Z 00461b40 f   Msgmng.obj
 0002:0001dc40       ?ResolveMsg@MsgMng@@QAEHPAURecvBuf@@PAUMsgBuf@@@Z 00461c40 f   Msgmng.obj
 0002:0001dfb0       ?UdpSend@MsgMng@@QAEHKHPBD@Z 00461fb0 f   Msgmng.obj
 0002:0001e000       ?UdpSend@MsgMng@@QAEHKHPBDH@Z 00462000 f   Msgmng.obj
 0002:0001e150       ?UdpRecv@MsgMng@@QAEHPAURecvBuf@@@Z 00462150 f   Msgmng.obj
 0002:0001e1e0       ?Accept@MsgMng@@QAEHPAUHWND__@@PAUConnectInfo@@@Z 004621e0 f   Msgmng.obj
 0002:0001e360       ?Connect@MsgMng@@QAEHPAUHWND__@@PAUConnectInfo@@@Z 00462360 f   Msgmng.obj
 0002:0001e540       ?AsyncSelectConnect@MsgMng@@QAEHPAUHWND__@@PAUConnectInfo@@@Z 00462540 f   Msgmng.obj
 0002:0001e5a0       ?ConnectDone@MsgMng@@QAEHPAUHWND__@@PAUConnectInfo@@@Z 004625a0 f   Msgmng.obj
 0002:0001e600       ??0TRecvDlg@@QAE@PAVMsgMng@@PAUMsgBuf@@PAVTHosts@@PAUCfg@@PAVLogMng@@@Z 00462600 f   Recvdlg.obj
 0002:0001e9b0       ?Init@MsgBuf@@QAEXPAU1@@Z  004629b0 f i Recvdlg.obj
 0002:0001ea80       ?IsClosable@TRecvDlg@@UAEHXZ 00462a80 f i Recvdlg.obj
 0002:0001eae0       ??_ETRecvDlg@@UAEPAXI@Z    00462ae0 f i Recvdlg.obj
 0002:0001eae0       ??_GTRecvDlg@@UAEPAXI@Z    00462ae0 f i Recvdlg.obj
 0002:0001eb30       ??0RecvFileObj@@QAE@XZ     00462b30 f i Recvdlg.obj
 0002:0001eb60       ??0FileInfo@@QAE@H@Z       00462b60 f i Recvdlg.obj
 0002:0001ebd0       ??1TRecvDlg@@UAE@XZ        00462bd0 f   Recvdlg.obj
 0002:0001ed90       ??_GRecvFileObj@@QAEPAXI@Z 00462d90 f i Recvdlg.obj
 0002:0001ede0       ??1RecvFileObj@@QAE@XZ     00462de0 f i Recvdlg.obj
 0002:0001ee10       ??1FileInfo@@QAE@XZ        00462e10 f i Recvdlg.obj
 0002:0001ee50       ?DecryptMsg@TRecvDlg@@IAEHXZ 00462e50 f   Recvdlg.obj
 0002:0001f310       ?EvCreate@TRecvDlg@@UAEHJ@Z 00463310 f   Recvdlg.obj
 0002:0001f940       ?EvCommand@TRecvDlg@@UAEHGGJ@Z 00463940 f   Recvdlg.obj
 0002:00020560       ??1TSaveCommonDlg@@UAE@XZ  00464560 f i Recvdlg.obj
 0002:00020590       ?SaveFile@TRecvDlg@@IAEHXZ 00464590 f   Recvdlg.obj
 0002:000207c0       ?Attr@FileInfo@@QAEIXZ     004647c0 f i Recvdlg.obj
 0002:000207e0       ?IsSelected@FileInfo@@QAEHXZ 004647e0 f i Recvdlg.obj
 0002:00020800       ?EvSysCommand@TRecvDlg@@UAEHIUtagPOINTS@@@Z 00464800 f   Recvdlg.obj
 0002:000208a0       ?EventUser@TRecvDlg@@UAEHIIJ@Z 004648a0 f   Recvdlg.obj
 0002:00020910       ?EvTimer@TRecvDlg@@UAEHIP6GXPAUHWND__@@IIK@Z@Z 00464910 f   Recvdlg.obj
 0002:00020a20       ?EvSize@TRecvDlg@@UAEHIGG@Z 00464a20 f   Recvdlg.obj
 0002:00021170       ?EvGetMinMaxInfo@TRecvDlg@@UAEHPAUtagMINMAXINFO@@@Z 00465170 f   Recvdlg.obj
 0002:000211f0       ?EvContextMenu@TRecvDlg@@UAEHPAUHWND__@@UtagPOINTS@@@Z 004651f0 f   Recvdlg.obj
 0002:00021220       ?IsSamePacket@TRecvDlg@@UAEHPAUMsgBuf@@@Z 00465220 f   Recvdlg.obj
 0002:00021290       ?SetFont@TRecvDlg@@IAEXXZ  00465290 f   Recvdlg.obj
 0002:000214d0       ?SetSize@TRecvDlg@@IAEXXZ  004654d0 f   Recvdlg.obj
 0002:00021950       ?EventInitMenu@TRecvDlg@@UAEHIPAUHMENU__@@IH@Z 00465950 f   Recvdlg.obj
 0002:000219d0       ?EventCtlColor@TRecvDlg@@UAEHIPAUHDC__@@PAUHWND__@@PAPAUHBRUSH__@@@Z 004659d0 f   Recvdlg.obj
 0002:000219f0       ?EventButton@TRecvDlg@@UAEHIHUtagPOINTS@@@Z 004659f0 f   Recvdlg.obj
 0002:00021a60       ?PopupContextMenu@TRecvDlg@@IAEXUtagPOINTS@@@Z 00465a60 f   Recvdlg.obj
 0002:00021ad0       ?SetMainMenu@TRecvDlg@@IAEXPAUHMENU__@@@Z 00465ad0 f   Recvdlg.obj
 0002:00021b60       ?SendFinishNotify@TRecvDlg@@UAEHPAUHostSub@@K@Z 00465b60 f   Recvdlg.obj
 0002:00021c30       ?Show@TRecvDlg@@UAEXH@Z    00465c30 f   Recvdlg.obj
 0002:00021c80       ?TcpEvent@TRecvDlg@@IAEHIJ@Z 00465c80 f   Recvdlg.obj
 0002:00021d20       ?ConnectRecvFile@TRecvDlg@@IAEHXZ 00465d20 f   Recvdlg.obj
 0002:00021df0       ?StartRecvFile@TRecvDlg@@IAEHXZ 00465df0 f   Recvdlg.obj
 0002:000221b0       ?Id@FileInfo@@QAEHXZ       004661b0 f i Recvdlg.obj
 0002:000221d0       ?Size@FileInfo@@QAE_JXZ    004661d0 f i Recvdlg.obj
 0002:00022200       ??4FileInfo@@QAEAAV0@ABV0@@Z 00466200 f i Recvdlg.obj
 0002:000222c0       ?SetFname@FileInfo@@QAEXPBD@Z 004662c0 f i Recvdlg.obj
 0002:00022310       ?RecvFileThread@TRecvDlg@@KGKPAX@Z 00466310 f   Recvdlg.obj
 0002:00022610       ?CloseRecvFile@TRecvDlg@@IAEHH@Z 00466610 f   Recvdlg.obj
 0002:000227b0       ?Mtime@FileInfo@@QAE_JXZ   004667b0 f i Recvdlg.obj
 0002:000227e0       ?UnixTime2FileTime@@YAX_JPAU_FILETIME@@@Z 004667e0 f i Recvdlg.obj
 0002:00022830       ?DecodeDirEntry@@YAHPADPAVFileInfo@@@Z 00466830 f   Recvdlg.obj
 0002:00022a30       ?SetFnameExt@FileInfo@@QAEXPBD@Z 00466a30 f i Recvdlg.obj
 0002:00022a60       ?SetSize@FileInfo@@QAEX_J@Z 00466a60 f i Recvdlg.obj
 0002:00022a90       ?SetMtime@FileInfo@@QAEX_J@Z 00466a90 f i Recvdlg.obj
 0002:00022ac0       ?SetAttr@FileInfo@@QAEXI@Z 00466ac0 f i Recvdlg.obj
 0002:00022af0       ?RecvDirFile@TRecvDlg@@IAEHXZ 00466af0 f   Recvdlg.obj
 0002:00023390       ?OpenRecvFile@TRecvDlg@@IAEHXZ 00467390 f   Recvdlg.obj
 0002:000235b0       ?RecvFile@TRecvDlg@@IAEHXZ 004675b0 f   Recvdlg.obj
 0002:00023910       ?MakeTransRateStr@@YAHPADK_J1@Z 00467910 f   Recvdlg.obj
 0002:00023aa0       ?MakeDirTransRateStr@@YAHPADK_JH@Z 00467aa0 f   Recvdlg.obj
 0002:00023bd0       ?EvCreate@RecvTransEndDlg@@UAEHJ@Z 00467bd0 f   Recvdlg.obj
 0002:00023ff0       ?EvCommand@RecvTransEndDlg@@UAEHGGJ@Z 00467ff0 f   Recvdlg.obj
 0002:000240a0       ?EndRecvFile@TRecvDlg@@IAEHH@Z 004680a0 f   Recvdlg.obj
 0002:00024570       ??0RecvTransEndDlg@@QAE@PAURecvFileObj@@PAVTWin@@@Z 00468570 f i Recvdlg.obj
 0002:000245d0       ??_GRecvTransEndDlg@@UAEPAXI@Z 004685d0 f i Recvdlg.obj
 0002:000245d0       ??_ERecvTransEndDlg@@UAEPAXI@Z 004685d0 f i Recvdlg.obj
 0002:00024620       ??1RecvTransEndDlg@@UAE@XZ 00468620 f i Recvdlg.obj
 0002:00024650       ?SetTransferButtonText@TRecvDlg@@IAEXXZ 00468650 f   Recvdlg.obj
 0002:00024810       ??0TSendDlg@@QAE@PAVMsgMng@@PAVShareMng@@PAVTHosts@@PAUCfg@@PAVLogMng@@PAUHWND__@@PAUMsgBuf@@@Z 00468810 f   Senddlg.obj
 0002:00024ae0       ??_GTSendDlg@@UAEPAXI@Z    00468ae0 f i Senddlg.obj
 0002:00024ae0       ??_ETSendDlg@@UAEPAXI@Z    00468ae0 f i Senddlg.obj
 0002:00024b30       ??1TSendDlg@@UAE@XZ        00468b30 f   Senddlg.obj
 0002:00024d20       ??_ESendEntry@@QAEPAXI@Z   00468d20 f i Senddlg.obj
 0002:00024db0       ??1SendEntry@@QAE@XZ       00468db0 f i Senddlg.obj
 0002:00024e40       ?EvCreate@TSendDlg@@UAEHJ@Z 00468e40 f   Senddlg.obj
 0002:00025230       ?InitializeHeader@TSendDlg@@IAEXXZ 00469230 f   Senddlg.obj
 0002:00025630       ?EvCommand@TSendDlg@@UAEHGGJ@Z 00469630 f   Senddlg.obj
 0002:00026c90       ?GetOrder@TSendDlg@@IAEXXZ 0046ac90 f   Senddlg.obj
 0002:00026dc0       ?EvSysCommand@TSendDlg@@UAEHIUtagPOINTS@@@Z 0046adc0 f   Senddlg.obj
 0002:00026e60       ?EventInitMenu@TSendDlg@@UAEHIPAUHMENU__@@IH@Z 0046ae60 f   Senddlg.obj
 0002:00026ee0       ?EventCtlColor@TSendDlg@@UAEHIPAUHDC__@@PAUHWND__@@PAPAUHBRUSH__@@@Z 0046aee0 f   Senddlg.obj
 0002:00026f00       ?EvMenuSelect@TSendDlg@@UAEHIIPAUHMENU__@@@Z 0046af00 f   Senddlg.obj
 0002:00026f70       ?EvDropFiles@TSendDlg@@UAEHPAUHDROP__@@@Z 0046af70 f   Senddlg.obj
 0002:000270f0       ?GetListItemStr@TSendDlg@@IAEPADPAUHost@@H@Z 0046b0f0 f   Senddlg.obj
 0002:00027280       ?EvNotify@TSendDlg@@UAEHIPAUtagNMHDR@@@Z 0046b280 f   Senddlg.obj
 0002:00027410       ?EvMouseMove@TSendDlg@@UAEHIUtagPOINTS@@@Z 0046b410 f   Senddlg.obj
 0002:00027570       ?EventButton@TSendDlg@@UAEHIHUtagPOINTS@@@Z 0046b570 f   Senddlg.obj
 0002:000275e0       ?EvSize@TSendDlg@@UAEHIGG@Z 0046b5e0 f   Senddlg.obj
 0002:00027da0       ?EvGetMinMaxInfo@TSendDlg@@UAEHPAUtagMINMAXINFO@@@Z 0046bda0 f   Senddlg.obj
 0002:00027e60       ?EvContextMenu@TSendDlg@@UAEHPAUHWND__@@UtagPOINTS@@@Z 0046be60 f   Senddlg.obj
 0002:00027e90       ?EvMeasureItem@TSendDlg@@UAEHIPAUtagMEASUREITEMSTRUCT@@@Z 0046be90 f   Senddlg.obj
 0002:00027eb0       ?EvDrawItem@TSendDlg@@UAEHIPAUtagDRAWITEMSTRUCT@@@Z 0046beb0 f   Senddlg.obj
 0002:00027ed0       ?EventUser@TSendDlg@@UAEHIIJ@Z 0046bed0 f   Senddlg.obj
 0002:00027fc0       ?EvTimer@TSendDlg@@UAEHIP6GXPAUHWND__@@IIK@Z@Z 0046bfc0 f   Senddlg.obj
 0002:00028280       ?Host@SendEntry@@QAEPAU0@XZ 0046c280 f i Senddlg.obj
 0002:000282a0       ?Status@SendEntry@@QAE?AW4SendStatus@@XZ 0046c2a0 f i Senddlg.obj
 0002:000282c0       ?Show@TSendDlg@@UAEXH@Z    0046c2c0 f   Senddlg.obj
 0002:00028310       ?SetQuoteStr@TSendDlg@@IAEXPADPBD@Z 0046c310 f   Senddlg.obj
 0002:00028470       ?AddHost@TSendDlg@@QAEXPAUHost@@@Z 0046c470 f   Senddlg.obj
 0002:00028710       ?ModifyHost@TSendDlg@@QAEXPAUHost@@@Z 0046c710 f   Senddlg.obj
 0002:00028750       ?DelHost@TSendDlg@@QAEXPAUHost@@@Z 0046c750 f   Senddlg.obj
 0002:000288b0       ?DelAllHost@TSendDlg@@QAEXXZ 0046c8b0 f   Senddlg.obj
 0002:00028940       ?GetInsertIndexPoint@TSendDlg@@IAEIPAUHost@@@Z 0046c940 f   Senddlg.obj
 0002:00028a00       ?CompareHosts@TSendDlg@@IAEHPAUHost@@0@Z 0046ca00 f   Senddlg.obj
 0002:00028dc0       ?GroupCompare@TSendDlg@@IAEHPAUHost@@0@Z 0046cdc0 f   Senddlg.obj
 0002:00028f70       ?SubCompare@TSendDlg@@IAEHPAUHost@@0@Z 0046cf70 f   Senddlg.obj
 0002:000291c0       ?SelectHost@TSendDlg@@IAEXPAUHostSub@@H@Z 0046d1c0 f   Senddlg.obj
 0002:00029370       ?SetFocusIndex@TListViewEx@@QAEXH@Z 0046d370 f i Senddlg.obj
 0002:000293a0       ?DisplayMemberCnt@TSendDlg@@IAEXXZ 0046d3a0 f   Senddlg.obj
 0002:00029430       ?SendMsg@TSendDlg@@IAEHXZ  0046d430 f   Senddlg.obj
 0002:00029c20       ??0SendEntry@@QAE@XZ       0046dc20 f i Senddlg.obj
 0002:00029c60       ?SetHost@SendEntry@@QAEXPAUHost@@@Z 0046dc60 f i Senddlg.obj
 0002:00029c90       ?SetStatus@SendEntry@@QAEXW4SendStatus@@@Z 0046dc90 f i Senddlg.obj
 0002:00029cc0       ?SetCommand@SendEntry@@QAEXI@Z 0046dcc0 f i Senddlg.obj
 0002:00029cf0       ?MakeEncryptPacket@TSendDlg@@IAEHPAVSendEntry@@@Z 0046dcf0 f   Senddlg.obj
 0002:00029e40       ?SetMsg@SendEntry@@QAEXPADH@Z 0046de40 f i Senddlg.obj
 0002:00029ea0       ?Command@SendEntry@@QAEIXZ 0046dea0 f i Senddlg.obj
 0002:00029ec0       ?MakeEncryptMsg@TSendDlg@@IAEHPAUHost@@PAD1@Z 0046dec0 f   Senddlg.obj
 0002:0002a460       ?SendMsgSub@TSendDlg@@IAEHXZ 0046e460 f   Senddlg.obj
 0002:0002a7c0       ?Msg@SendEntry@@QAEPBDXZ   0046e7c0 f i Senddlg.obj
 0002:0002a7e0       ?MsgLen@SendEntry@@QAEHXZ  0046e7e0 f i Senddlg.obj
 0002:0002a800       ?FindHost@TSendDlg@@QAEHPADH@Z 0046e800 f   Senddlg.obj
 0002:0002aa40       ?GetFocusIndex@TListViewEx@@QAEHXZ 0046ea40 f i Senddlg.obj
 0002:0002aa60       ?strtoupper@@YAPADPADPBD@Z 0046ea60 f i Senddlg.obj
 0002:0002ab20       ?SendFinishNotify@TSendDlg@@QAEHPAUHostSub@@K@Z 0046eb20 f   Senddlg.obj
 0002:0002aca0       ?SendPubKeyNotify@TSendDlg@@QAEHPAUHostSub@@PAEHHH@Z 0046eca0 f   Senddlg.obj
 0002:0002ae50       ?Set@PubKey@@QAEXPAEHHH@Z  0046ee50 f i Senddlg.obj
 0002:0002aed0       ?IsSending@TSendDlg@@QAEHXZ 0046eed0 f   Senddlg.obj
 0002:0002af00       ?IsSendFinish@TSendDlg@@IAEHXZ 0046ef00 f   Senddlg.obj
 0002:0002af80       ?SetFont@TSendDlg@@IAEXXZ  0046ef80 f   Senddlg.obj
 0002:0002b3b0       ?SetSize@TSendDlg@@IAEXXZ  0046f3b0 f   Senddlg.obj
 0002:0002b830       ?PopupContextMenu@TSendDlg@@IAEXUtagPOINTS@@@Z 0046f830 f   Senddlg.obj
 0002:0002bd80       ?SetMainMenu@TSendDlg@@IAEXPAUHMENU__@@@Z 0046fd80 f   Senddlg.obj
 0002:0002bea0       ?SetFileButton@@YAHPAVTDlg@@HPAUShareInfo@@@Z 0046fea0 f   Senddlg.obj
 0002:0002c0a0       ?ResId@TDlg@@QAEIXZ        004700a0 f i Senddlg.obj
 0002:0002c0c0       ??0TSetupDlg@@QAE@PAUCfg@@PAVTHosts@@PAVTWin@@@Z 004700c0 f   Setupdlg.obj
 0002:0002c120       ??_GTSetupDlg@@UAEPAXI@Z   00470120 f i Setupdlg.obj
 0002:0002c120       ??_ETSetupDlg@@UAEPAXI@Z   00470120 f i Setupdlg.obj
 0002:0002c170       ??1TSetupDlg@@UAE@XZ       00470170 f   Setupdlg.obj
 0002:0002c1a0       ?EvCreate@TSetupDlg@@UAEHJ@Z 004701a0 f   Setupdlg.obj
 0002:0002c350       ?EvCommand@TSetupDlg@@UAEHGGJ@Z 00470350 f   Setupdlg.obj
 0002:0002c970       ?SetData@TSetupDlg@@IAEXXZ 00470970 f   Setupdlg.obj
 0002:0002cc40       ?GetData@TSetupDlg@@IAEXXZ 00470c40 f   Setupdlg.obj
 0002:0002ceb0       ??0ShareMng@@QAE@PAUCfg@@@Z 00470eb0 f   share.obj
 0002:0002cf20       ?CreateShare@ShareMng@@QAEPAUShareInfo@@H@Z 00470f20 f   share.obj
 0002:0002d000       ?AddFileShare@ShareMng@@QAEHPAUShareInfo@@PAD@Z 00471000 f   share.obj
 0002:0002d190       ?DelFileShare@ShareMng@@QAEHPAUShareInfo@@H@Z 00471190 f   share.obj
 0002:0002d230       ?SetFileInfo@ShareMng@@IAEHPADPAVFileInfo@@@Z 00471230 f   share.obj
 0002:0002d3e0       ?AddHostShare@ShareMng@@QAEHPAUShareInfo@@PAVSendEntry@@H@Z 004713e0 f   share.obj
 0002:0002d680       ?GetHostByNameAddr@THosts@@QAEPAUHost@@PAUHostSub@@@Z 00471680 f i share.obj
 0002:0002d6d0       ?GetFileInfoNo@ShareMng@@SAHPAUShareInfo@@PAVFileInfo@@@Z 004716d0 f   share.obj
 0002:0002d730       ?EndHostShare@ShareMng@@QAEHHPAUHostSub@@PAVFileInfo@@H@Z 00471730 f   share.obj
 0002:0002da10       ?IsSameHostEx@@YAHPAUHostSub@@0@Z 00471a10 f i share.obj
 0002:0002da80       ?DestroyShare@ShareMng@@QAEXPAUShareInfo@@@Z 00471a80 f   share.obj
 0002:0002dc30       ??_GFileInfo@@QAEPAXI@Z    00471c30 f i share.obj
 0002:0002dc80       ?Search@ShareMng@@QAEPAUShareInfo@@H@Z 00471c80 f   share.obj
 0002:0002dce0       ?GetShareCntInfo@ShareMng@@QAEHPAUShareCntInfo@@PAUShareInfo@@@Z 00471ce0 f   share.obj
 0002:0002ded0       ?GetAcceptableFileInfo@ShareMng@@QAEHPAUConnectInfo@@PADPAUAcceptFileInfo@@@Z 00471ed0 f   share.obj
 0002:0002e3a0       ??0TShareDlg@@QAE@PAVShareMng@@PAUShareInfo@@PAUCfg@@PAVTWin@@@Z 004723a0 f   share.obj
 0002:0002e460       ??_GTShareDlg@@UAEPAXI@Z   00472460 f i share.obj
 0002:0002e460       ??_ETShareDlg@@UAEPAXI@Z   00472460 f i share.obj
 0002:0002e4b0       ??1TShareDlg@@UAE@XZ       004724b0 f   share.obj
 0002:0002e560       ?EvCreate@TShareDlg@@UAEHJ@Z 00472560 f   share.obj
 0002:0002e8e0       ?AddList@TShareDlg@@AAEHH@Z 004728e0 f   share.obj
 0002:0002e960       ?DelList@TShareDlg@@AAEHH@Z 00472960 f   share.obj
 0002:0002e9d0       ?EvNotify@TShareDlg@@UAEHIPAUtagNMHDR@@@Z 004729d0 f   share.obj
 0002:0002eb20       ?EvDropFiles@TShareDlg@@UAEHPAUHDROP__@@@Z 00472b20 f   share.obj
 0002:0002ebb0       ?EvCommand@TShareDlg@@UAEHGGJ@Z 00472bb0 f   share.obj
 0002:0002ede0       ?FileAddDlg@TShareDlg@@SAHPAVTDlg@@PAVShareMng@@PAUShareInfo@@PAUCfg@@@Z 00472de0 f   share.obj
 0002:0002ef90       ??0TShareStatDlg@@QAE@PAVShareMng@@PAUCfg@@PAVTWin@@@Z 00472f90 f   share.obj
 0002:0002f060       ?RegistShareStatDlg@ShareMng@@QAEXPAVTShareStatDlg@@@Z 00473060 f i share.obj
 0002:0002f090       ??_GTShareStatDlg@@UAEPAXI@Z 00473090 f i share.obj
 0002:0002f090       ??_ETShareStatDlg@@UAEPAXI@Z 00473090 f i share.obj
 0002:0002f0e0       ??1TShareStatDlg@@UAE@XZ   004730e0 f   share.obj
 0002:0002f190       ?EvCreate@TShareStatDlg@@UAEHJ@Z 00473190 f   share.obj
 0002:0002f560       ?Refresh@TShareStatDlg@@UAEHXZ 00473560 f   share.obj
 0002:0002f5a0       ?SetAllList@TShareStatDlg@@AAEHXZ 004735a0 f   share.obj
 0002:0002f6a0       ?DelList@TShareStatDlg@@AAEHH@Z 004736a0 f   share.obj
 0002:0002f7c0       ?EvNotify@TShareStatDlg@@UAEHIPAUtagNMHDR@@@Z 004737c0 f   share.obj
 0002:0002fbb0       ?EvCommand@TShareStatDlg@@UAEHGGJ@Z 00473bb0 f   share.obj
 0002:0002fd40       ??0TSaveCommonDlg@@QAE@PAUShareInfo@@PAUCfg@@PAVTWin@@@Z 00473d40 f   share.obj
 0002:0002fe40       ?SetSelected@FileInfo@@QAEXH@Z 00473e40 f i share.obj
 0002:0002fe70       ?EndDialog@TSaveCommonDlg@@UAEXH@Z 00473e70 f i share.obj
 0002:0002fe90       ??_GTSaveCommonDlg@@UAEPAXI@Z 00473e90 f i share.obj
 0002:0002fe90       ??_ETSaveCommonDlg@@UAEPAXI@Z 00473e90 f i share.obj
 0002:0002fee0       ?Exec@TSaveCommonDlg@@UAEHXZ 00473ee0 f   share.obj
 0002:00030320       ?EvCreate@TSaveCommonDlg@@UAEHJ@Z 00474320 f   share.obj
 0002:00030710       ?EvCommand@TSaveCommonDlg@@UAEHGGJ@Z 00474710 f   share.obj
 0002:00030860       ?EventUser@TSaveCommonDlg@@UAEHIIJ@Z 00474860 f   share.obj
 0002:00030880       ?SetInfo@TSaveCommonDlg@@IAEHXZ 00474880 f   share.obj
 0002:00030b00       ?EncodeShareMsg@@YAHPAUShareInfo@@PADH@Z 00474b00 f   share.obj
 0002:00030d40       ?SetId@FileInfo@@QAEXH@Z   00474d40 f i share.obj
 0002:00030d70       ?ConvertShareMsgEscape@@YAXPAD@Z 00474d70 f   share.obj
 0002:00030df0       ?DecodeShareMsg@@YAPAUShareInfo@@PAD@Z 00474df0 f   share.obj
 0002:00031260       ?FreeDecodeShareMsg@@YAHPAUShareInfo@@@Z 00475260 f   share.obj
 0002:00031310       ?FreeDecodeShareMsgFile@@YAHPAUShareInfo@@H@Z 00475310 f   share.obj
 0002:000313d0       ??0ShareInfo@@QAE@H@Z      004753d0 f   share.obj
 0002:00031440       ?LinkList@ShareInfo@@QAEXPAU1@@Z 00475440 f   share.obj
 0002:00031490       ?GetFileInfomation@@YAHPBDPAU_WIN32_FIND_DATAA@@@Z 00475490 f   share.obj
 0002:000315a0       ??0TApp@@QAE@PAUHINSTANCE__@@PADH@Z 004755a0 f   Tapp.obj
 0002:00031620       ??_GTApp@@UAEPAXI@Z        00475620 f i Tapp.obj
 0002:00031620       ??_ETApp@@UAEPAXI@Z        00475620 f i Tapp.obj
 0002:00031670       ??1TApp@@UAE@XZ            00475670 f   Tapp.obj
 0002:000316f0       ?Run@TApp@@UAEHXZ          004756f0 f   Tapp.obj
 0002:00031780       ?PreProcMsg@TApp@@SAHPAUtagMSG@@@Z 00475780 f   Tapp.obj
 0002:00031800       ?WinProc@TApp@@SGJPAUHWND__@@IIJ@Z 00475800 f   Tapp.obj
 0002:000318d0       ?AddWin@TApp@@SAXPAVTWin@@@Z 004758d0 f   Tapp.obj
 0002:000318f0       ?AddWinByWnd@TApp@@SAXPAVTWin@@PAUHWND__@@@Z 004758f0 f   Tapp.obj
 0002:00031920       ?AddWinSub@TApp@@KAXPAVTWin@@@Z 00475920 f   Tapp.obj
 0002:000319e0       ?DelWin@TApp@@SAXPAVTWin@@@Z 004759e0 f   Tapp.obj
 0002:00031a80       ?InitApp@TApp@@MAEHXZ      00475a80 f   Tapp.obj
 0002:00031b50       ?SearchWnd@TApp@@KAPAVTWin@@PAUHWND__@@@Z 00475b50 f   Tapp.obj
 0002:00031bc0       ?SearchWndIndex@TApp@@KAHPAVTWin@@PAH@Z 00475bc0 f   Tapp.obj
 0002:00031c30       ?LoadCtl3d@@YAPAUHINSTANCE__@@XZ 00475c30 f   Tapp.obj
 0002:00031ce0       ??0TDlg@@QAE@PADPAVTWin@@@Z 00475ce0 f   Tdlg.obj
 0002:00031d50       ??_ETDlg@@UAEPAXI@Z        00475d50 f i Tdlg.obj
 0002:00031d50       ??_GTDlg@@UAEPAXI@Z        00475d50 f i Tdlg.obj
 0002:00031da0       ??0TDlg@@QAE@IPAVTWin@@@Z  00475da0 f   Tdlg.obj
 0002:00031e00       ??1TDlg@@UAE@XZ            00475e00 f   Tdlg.obj
 0002:00031eb0       ?Create@TDlg@@UAEHPAUHINSTANCE__@@@Z 00475eb0 f   Tdlg.obj
 0002:00031f90       ?Exec@TDlg@@UAEHXZ         00475f90 f   Tdlg.obj
 0002:00032050       ?Destroy@TDlg@@UAEXXZ      00476050 f   Tdlg.obj
 0002:00032080       ?WinProc@TDlg@@UAEJIIJ@Z   00476080 f   Tdlg.obj
 0002:000327c0       ?PreProcMsg@TDlg@@UAEHPAUtagMSG@@@Z 004767c0 f   Tdlg.obj
 0002:00032840       ?EvSysCommand@TDlg@@UAEHIUtagPOINTS@@@Z 00476840 f   Tdlg.obj
 0002:00032860       ?EvCommand@TDlg@@UAEHGGJ@Z 00476860 f   Tdlg.obj
 0002:00032910       ?EvQueryOpen@TDlg@@UAEHXZ  00476910 f   Tdlg.obj
 0002:00032930       ?EvCreate@TDlg@@UAEHJ@Z    00476930 f   Tdlg.obj
 0002:00032950       ?EndDialog@TDlg@@UAEXH@Z   00476950 f   Tdlg.obj
 0002:000329c0       ??0TList@@QAE@XZ           004769c0 f   Tlist.obj
 0002:00032a10       ?AddObj@TList@@UAEXPAUTListObj@@@Z 00476a10 f   Tlist.obj
 0002:00032a70       ?DelObj@TList@@SAXPAUTListObj@@@Z 00476a70 f   Tlist.obj
 0002:00032ae0       ?TopObj@TList@@UAEPAUTListObj@@XZ 00476ae0 f   Tlist.obj
 0002:00032b30       ?NextObj@TList@@UAEPAUTListObj@@PAU2@@Z 00476b30 f   Tlist.obj
 0002:00032b80       ??0TRecycleList@@QAE@HH@Z  00476b80 f   Tlist.obj
 0002:00032c50       ??_H@YGXPAXIHP6EPAX0@Z@Z   00476c50 f i Tlist.obj
 0002:00032c90       ??1TRecycleList@@QAE@XZ    00476c90 f   Tlist.obj
 0002:00032cc0       ?GetObj@TRecycleList@@QAEPAUTListObj@@H@Z 00476cc0 f   Tlist.obj
 0002:00032d20       ?PutObj@TRecycleList@@QAEXHPAUTListObj@@@Z 00476d20 f   Tlist.obj
 0002:00032d70       ??0TRegistry@@QAE@PBDPAD@Z 00476d70 f   Tregist.obj
 0002:00032db0       ??0TRegistry@@QAE@PAUHKEY__@@@Z 00476db0 f   Tregist.obj
 0002:00032df0       ??1TRegistry@@QAE@XZ       00476df0 f   Tregist.obj
 0002:00032e20       ?ChangeApp@TRegistry@@QAEHPBDPAD@Z 00476e20 f   Tregist.obj
 0002:00032ef0       ?ChangeTopKey@TRegistry@@QAEXPAUHKEY__@@@Z 00476ef0 f   Tregist.obj
 0002:00032f30       ?OpenKey@TRegistry@@QAEHPBDH@Z 00476f30 f   Tregist.obj
 0002:00033030       ?CloseKey@TRegistry@@QAEHXZ 00477030 f   Tregist.obj
 0002:00033090       ?GetInt@TRegistry@@QAEHPBDPAH@Z 00477090 f   Tregist.obj
 0002:000330e0       ?SetInt@TRegistry@@QAEHPBDH@Z 004770e0 f   Tregist.obj
 0002:00033110       ?GetLong@TRegistry@@QAEHPBDPAJ@Z 00477110 f   Tregist.obj
 0002:000331f0       ?SetLong@TRegistry@@QAEHPBDJ@Z 004771f0 f   Tregist.obj
 0002:00033240       ?GetStr@TRegistry@@QAEHPBDPADH@Z 00477240 f   Tregist.obj
 0002:000332e0       ?SetStr@TRegistry@@QAEHPBD0@Z 004772e0 f   Tregist.obj
 0002:00033340       ?GetByte@TRegistry@@QAEHPBDPAEPAH@Z 00477340 f   Tregist.obj
 0002:000333a0       ?SetByte@TRegistry@@QAEHPBDPBEH@Z 004773a0 f   Tregist.obj
 0002:000333f0       ?DeleteKey@TRegistry@@QAEHPBD@Z 004773f0 f   Tregist.obj
 0002:00033440       ?DeleteValue@TRegistry@@QAEHPBD@Z 00477440 f   Tregist.obj
 0002:00033490       ?EnumKey@TRegistry@@QAEHKPADH@Z 00477490 f   Tregist.obj
 0002:000334f0       ?EnumValue@TRegistry@@QAEHKPADHPAK@Z 004774f0 f   Tregist.obj
 0002:00033550       ?DeleteChildTree@TRegistry@@QAEHPAD@Z 00477550 f   Tregist.obj
 0002:00033670       ??0TWin@@QAE@PAV0@@Z       00477670 f   Twin.obj
 0002:00033700       ??_ETWin@@UAEPAXI@Z        00477700 f i Twin.obj
 0002:00033700       ??_GTWin@@UAEPAXI@Z        00477700 f i Twin.obj
 0002:00033750       ??1TWin@@UAE@XZ            00477750 f   Twin.obj
 0002:00033780       ?Create@TWin@@UAEHPBD0KKPAUHMENU__@@@Z 00477780 f   Twin.obj
 0002:00033870       ?Destroy@TWin@@UAEXXZ      00477870 f   Twin.obj
 0002:000338c0       ?Show@TWin@@UAEXH@Z        004778c0 f   Twin.obj
 0002:00033900       ?WinProc@TWin@@UAEJIIJ@Z   00477900 f   Twin.obj
 0002:00034130       ?DefWindowProcA@TWin@@UAEJIIJ@Z 00478130 f   Twin.obj
 0002:00034170       ?PreProcMsg@TWin@@UAEHPAUtagMSG@@@Z 00478170 f   Twin.obj
 0002:000341c0       ?EvCommand@TWin@@UAEHGGJ@Z 004781c0 f   Twin.obj
 0002:000341e0       ?EvSysCommand@TWin@@UAEHIUtagPOINTS@@@Z 004781e0 f   Twin.obj
 0002:00034200       ?EvCreate@TWin@@UAEHJ@Z    00478200 f   Twin.obj
 0002:00034220       ?EvClose@TWin@@UAEHXZ      00478220 f   Twin.obj
 0002:00034240       ?EvMeasureItem@TWin@@UAEHIPAUtagMEASUREITEMSTRUCT@@@Z 00478240 f   Twin.obj
 0002:00034260       ?EvDrawItem@TWin@@UAEHIPAUtagDRAWITEMSTRUCT@@@Z 00478260 f   Twin.obj
 0002:00034280       ?EvNcDestroy@TWin@@UAEHXZ  00478280 f   Twin.obj
 0002:000342a0       ?EvTimer@TWin@@UAEHIP6GXPAUHWND__@@IIK@Z@Z 004782a0 f   Twin.obj
 0002:000342c0       ?Sleep@TWin@@UAEHI@Z       004782c0 f   Twin.obj
 0002:000343c0       ?EvQueryEndSession@TWin@@UAEHHH@Z 004783c0 f   Twin.obj
 0002:000343e0       ?EvEndSession@TWin@@UAEHHH@Z 004783e0 f   Twin.obj
 0002:00034400       ?EvQueryOpen@TWin@@UAEHXZ  00478400 f   Twin.obj
 0002:00034420       ?EvPaint@TWin@@UAEHXZ      00478420 f   Twin.obj
 0002:00034440       ?EvNcPaint@TWin@@UAEHPAUHRGN__@@@Z 00478440 f   Twin.obj
 0002:00034460       ?EvSize@TWin@@UAEHIGG@Z    00478460 f   Twin.obj
 0002:00034480       ?EvGetMinMaxInfo@TWin@@UAEHPAUtagMINMAXINFO@@@Z 00478480 f   Twin.obj
 0002:000344a0       ?EvSetCursor@TWin@@UAEHPAUHWND__@@GG@Z 004784a0 f   Twin.obj
 0002:000344c0       ?EvMouseMove@TWin@@UAEHIUtagPOINTS@@@Z 004784c0 f   Twin.obj
 0002:000344e0       ?EvNcHitTest@TWin@@UAEHUtagPOINTS@@PAJ@Z 004784e0 f   Twin.obj
 0002:00034500       ?EvNotify@TWin@@UAEHIPAUtagNMHDR@@@Z 00478500 f   Twin.obj
 0002:00034520       ?EvContextMenu@TWin@@UAEHPAUHWND__@@UtagPOINTS@@@Z 00478520 f   Twin.obj
 0002:00034540       ?EvHotKey@TWin@@UAEHH@Z    00478540 f   Twin.obj
 0002:00034560       ?EventScroll@TWin@@UAEHIHHPAUHWND__@@@Z 00478560 f   Twin.obj
 0002:00034580       ?EventButton@TWin@@UAEHIHUtagPOINTS@@@Z 00478580 f   Twin.obj
 0002:000345a0       ?EventInitMenu@TWin@@UAEHIPAUHMENU__@@IH@Z 004785a0 f   Twin.obj
 0002:000345c0       ?EvMenuSelect@TWin@@UAEHIIPAUHMENU__@@@Z 004785c0 f   Twin.obj
 0002:000345e0       ?EvDropFiles@TWin@@UAEHPAUHDROP__@@@Z 004785e0 f   Twin.obj
 0002:00034600       ?EventCtlColor@TWin@@UAEHIPAUHDC__@@PAUHWND__@@PAPAUHBRUSH__@@@Z 00478600 f   Twin.obj
 0002:00034620       ?EventFocus@TWin@@UAEHIPAUHWND__@@@Z 00478620 f   Twin.obj
 0002:00034640       ?EventUser@TWin@@UAEHIIJ@Z 00478640 f   Twin.obj
 0002:00034660       ?GetDlgItemTextA@TWin@@UAEIHPADH@Z 00478660 f   Twin.obj
 0002:000346a0       ?SetDlgItemTextA@TWin@@UAEHHPAD@Z 004786a0 f   Twin.obj
 0002:000346e0       ?GetDlgItem@TWin@@UAEPAUHWND__@@H@Z 004786e0 f   Twin.obj
 0002:00034710       ?MessageBoxA@TWin@@UAEHPBD0I@Z 00478710 f   Twin.obj
 0002:00034750       ?BringWindowToTop@TWin@@UAEHXZ 00478750 f   Twin.obj
 0002:00034780       ?PostMessageA@TWin@@UAEHIIJ@Z 00478780 f   Twin.obj
 0002:000347c0       ?SendMessageA@TWin@@UAEJIIJ@Z 004787c0 f   Twin.obj
 0002:00034800       ?SendDlgItemMessageA@TWin@@UAEJHIIJ@Z 00478800 f   Twin.obj
 0002:00034840       ?GetWindowRect@TWin@@UAEHPAUtagRECT@@@Z 00478840 f   Twin.obj
 0002:00034870       ?SetForegroundWindow@TWin@@UAEHXZ 00478870 f   Twin.obj
 0002:000348a0       ?SetForceForegroundWindow@TWin@@UAEHXZ 004788a0 f   Twin.obj
 0002:00034980       ?SetActiveWindow@TWin@@UAEPAUHWND__@@XZ 00478980 f   Twin.obj
 0002:000349b0       ?SetWindowTextA@TWin@@UAEHPAD@Z 004789b0 f   Twin.obj
 0002:000349e0       ?SetWindowLongA@TWin@@UAEJHJ@Z 004789e0 f   Twin.obj
 0002:00034a20       ?SetWindowWord@TWin@@UAEGHG@Z 00478a20 f   Twin.obj
 0002:00034a60       ?GetWindowLongA@TWin@@UAEJH@Z 00478a60 f   Twin.obj
 0002:00034a90       ?GetWindowWord@TWin@@UAEGH@Z 00478a90 f   Twin.obj
 0002:00034ac0       ?MoveWindow@TWin@@UAEHHHHHH@Z 00478ac0 f   Twin.obj
 0002:00034b10       ?Idle@TWin@@UAEHXZ         00478b10 f   Twin.obj
 0002:00034b90       ??0TSubClass@@QAE@PAVTWin@@@Z 00478b90 f   Twin.obj
 0002:00034bd0       ??_ETSubClass@@UAEPAXI@Z   00478bd0 f i Twin.obj
 0002:00034bd0       ??_GTSubClass@@UAEPAXI@Z   00478bd0 f i Twin.obj
 0002:00034c20       ?CreateByWnd@TSubClass@@UAEHPAUHWND__@@@Z 00478c20 f   Twin.obj
 0002:00034c80       ?DefWindowProcA@TSubClass@@UAEJIIJ@Z 00478c80 f   Twin.obj
 0002:00034cd0       ??0TSubClassCtl@@QAE@PAVTWin@@@Z 00478cd0 f   Twin.obj
 0002:00034d10       ??_GTSubClassCtl@@UAEPAXI@Z 00478d10 f i Twin.obj
 0002:00034d10       ??_ETSubClassCtl@@UAEPAXI@Z 00478d10 f i Twin.obj
 0002:00034d60       ?PreProcMsg@TSubClassCtl@@UAEHPAUtagMSG@@@Z 00478d60 f   Twin.obj
 0002:00034dac       _PlaySoundA@12             00478dac f   winmm:WINMM.dll
 0002:00034db2       _ImageList_ReplaceIcon@12  00478db2 f   Comctl32:COMCTL32.dll
 0002:00034db8       _ImageList_Create@20       00478db8 f   Comctl32:COMCTL32.dll
 0002:00034dbe       _ImageList_Destroy@4       00478dbe f   Comctl32:COMCTL32.dll
 0002:00034dc4       _InitCommonControls@0      00478dc4 f   Comctl32:COMCTL32.dll
 0002:00034dca       _inet_ntoa@4               00478dca f   wsock32:WSOCK32.dll
 0002:00034dd0       _htons@4                   00478dd0 f   wsock32:WSOCK32.dll
 0002:00034dd6       _closesocket@4             00478dd6 f   wsock32:WSOCK32.dll
 0002:00034ddc       _recv@16                   00478ddc f   wsock32:WSOCK32.dll
 0002:00034de2       _select@20                 00478de2 f   wsock32:WSOCK32.dll
 0002:00034de8       _send@16                   00478de8 f   wsock32:WSOCK32.dll
 0002:00034dee       _inet_addr@4               00478dee f   wsock32:WSOCK32.dll
 0002:00034df4       _WSAGetLastError@0         00478df4 f   wsock32:WSOCK32.dll
 0002:00034dfa       _gethostbyname@4           00478dfa f   wsock32:WSOCK32.dll
 0002:00034e00       _gethostname@8             00478e00 f   wsock32:WSOCK32.dll
 0002:00034e06       _listen@8                  00478e06 f   wsock32:WSOCK32.dll
 0002:00034e0c       _setsockopt@20             00478e0c f   wsock32:WSOCK32.dll
 0002:00034e12       _ioctlsocket@12            00478e12 f   wsock32:WSOCK32.dll
 0002:00034e18       _bind@12                   00478e18 f   wsock32:WSOCK32.dll
 0002:00034e1e       _socket@12                 00478e1e f   wsock32:WSOCK32.dll
 0002:00034e24       _WSAStartup@8              00478e24 f   wsock32:WSOCK32.dll
 0002:00034e2a       _WSACleanup@0              00478e2a f   wsock32:WSOCK32.dll
 0002:00034e30       _WSAAsyncSelect@16         00478e30 f   wsock32:WSOCK32.dll
 0002:00034e36       _sendto@24                 00478e36 f   wsock32:WSOCK32.dll
 0002:00034e3c       _recvfrom@24               00478e3c f   wsock32:WSOCK32.dll
 0002:00034e42       _accept@12                 00478e42 f   wsock32:WSOCK32.dll
 0002:00034e48       _connect@12                00478e48 f   wsock32:WSOCK32.dll
 0002:00034e4e       _ntohl@4                   00478e4e f   wsock32:WSOCK32.dll
 0002:00034e54       _GetVersion@0              00478e54 f   kernel32:KERNEL32.dll
 0002:00034e5a       _CloseHandle@4             00478e5a f   kernel32:KERNEL32.dll
 0002:00034e60       _ReleaseMutex@4            00478e60 f   kernel32:KERNEL32.dll
 0002:00034e66       _WaitForSingleObject@8     00478e66 f   kernel32:KERNEL32.dll
 0002:00034e6c       _CreateMutexA@12           00478e6c f   kernel32:KERNEL32.dll
 0002:00034e72       _ExitProcess@4             00478e72 f   kernel32:KERNEL32.dll
 0002:00034e78       _GetDriveTypeA@4           00478e78 f   kernel32:KERNEL32.dll
 0002:00034e7e       _SetCurrentDirectoryA@4    00478e7e f   kernel32:KERNEL32.dll
 0002:00034e84       _GetWindowsDirectoryA@8    00478e84 f   kernel32:KERNEL32.dll
 0002:00034e8a       _GetCurrentDirectoryA@8    00478e8a f   kernel32:KERNEL32.dll
 0002:00034e90       _WriteFile@20              00478e90 f   kernel32:KERNEL32.dll
 0002:00034e96       _SetFilePointer@16         00478e96 f   kernel32:KERNEL32.dll
 0002:00034e9c       _CreateFileA@28            00478e9c f   kernel32:KERNEL32.dll
 0002:00034ea2       _GetFullPathNameA@16       00478ea2 f   kernel32:KERNEL32.dll
 0002:00034ea8       _CreateThread@24           00478ea8 f   kernel32:KERNEL32.dll
 0002:00034eae       _GetTickCount@0            00478eae f   kernel32:KERNEL32.dll
 0002:00034eb4       _IsBadReadPtr@8            00478eb4 f   kernel32:KERNEL32.dll
 0002:00034eba       _MapViewOfFile@20          00478eba f   kernel32:KERNEL32.dll
 0002:00034ec0       _CreateFileMappingA@24     00478ec0 f   kernel32:KERNEL32.dll
 0002:00034ec6       _GetFileSize@8             00478ec6 f   kernel32:KERNEL32.dll
 0002:00034ecc       _UnmapViewOfFile@4         00478ecc f   kernel32:KERNEL32.dll
 0002:00034ed2       _ExitThread@4              00478ed2 f   kernel32:KERNEL32.dll
 0002:00034ed8       _FindClose@4               00478ed8 f   kernel32:KERNEL32.dll
 0002:00034ede       _FindNextFileA@8           00478ede f   kernel32:KERNEL32.dll
 0002:00034ee4       _FindFirstFileA@8          00478ee4 f   kernel32:KERNEL32.dll
 0002:00034eea       _Sleep@4                   00478eea f   kernel32:KERNEL32.dll
 0002:00034ef0       _GetProcAddress@8          00478ef0 f   kernel32:KERNEL32.dll
 0002:00034ef6       _LoadLibraryA@4            00478ef6 f   kernel32:KERNEL32.dll
 0002:00034efc       _LocalFree@4               00478efc f   kernel32:KERNEL32.dll
 0002:00034f02       _GetLastError@0            00478f02 f   kernel32:KERNEL32.dll
 0002:00034f08       _IsDBCSLeadByte@4          00478f08 f   kernel32:KERNEL32.dll
 0002:00034f0e       _SystemTimeToFileTime@8    00478f0e f   kernel32:KERNEL32.dll
 0002:00034f14       _GetLocalTime@4            00478f14 f   kernel32:KERNEL32.dll
 0002:00034f1a       _GetComputerNameA@8        00478f1a f   kernel32:KERNEL32.dll
 0002:00034f20       _ResumeThread@4            00478f20 f   kernel32:KERNEL32.dll
 0002:00034f26       _SuspendThread@4           00478f26 f   kernel32:KERNEL32.dll
 0002:00034f2c       _SetFileTime@16            00478f2c f   kernel32:KERNEL32.dll
 0002:00034f32       _SetFileAttributesA@8      00478f32 f   kernel32:KERNEL32.dll
 0002:00034f38       _CreateDirectoryA@8        00478f38 f   kernel32:KERNEL32.dll
 0002:00034f3e       _GetFileAttributesA@4      00478f3e f   kernel32:KERNEL32.dll
 0002:00034f44       _GetSystemTime@4           00478f44 f   kernel32:KERNEL32.dll
 0002:00034f4a       _GetFileInformationByHandle@8 00478f4a f   kernel32:KERNEL32.dll
 0002:00034f50       _FreeLibrary@4             00478f50 f   kernel32:KERNEL32.dll
 0002:00034f56       _wsprintfA                 00478f56 f   user32:USER32.dll
 0002:00034f5c       _SetForegroundWindow@4     00478f5c f   user32:USER32.dll
 0002:00034f62       _RegisterClassA@4          00478f62 f   user32:USER32.dll
 0002:00034f68       _FindWindowA@8             00478f68 f   user32:USER32.dll
 0002:00034f6e       _LoadCursorA@8             00478f6e f   user32:USER32.dll
 0002:00034f74       _LoadIconA@8               00478f74 f   user32:USER32.dll
 0002:00034f7a       _MessageBoxA@16            00478f7a f   user32:USER32.dll
 0002:00034f80       _SendMessageA@16           00478f80 f   user32:USER32.dll
 0002:00034f86       _GetSystemMetrics@4        00478f86 f   user32:USER32.dll
 0002:00034f8c       _LoadAcceleratorsA@8       00478f8c f   user32:USER32.dll
 0002:00034f92       _RegisterWindowMessageA@4  00478f92 f   user32:USER32.dll
 0002:00034f98       _PostQuitMessage@4         00478f98 f   user32:USER32.dll
 0002:00034f9e       _SetTimer@16               00478f9e f   user32:USER32.dll
 0002:00034fa4       _KillTimer@8               00478fa4 f   user32:USER32.dll
 0002:00034faa       _GetAsyncKeyState@4        00478faa f   user32:USER32.dll
 0002:00034fb0       _DestroyMenu@4             00478fb0 f   user32:USER32.dll
 0002:00034fb6       _AppendMenuA@16            00478fb6 f   user32:USER32.dll
 0002:00034fbc       _GetMenuStringA@20         00478fbc f   user32:USER32.dll
 0002:00034fc2       _GetMenuItemCount@4        00478fc2 f   user32:USER32.dll
 0002:00034fc8       _GetSubMenu@8              00478fc8 f   user32:USER32.dll
 0002:00034fce       _LoadMenuA@8               00478fce f   user32:USER32.dll
 0002:00034fd4       _DeleteMenu@12             00478fd4 f   user32:USER32.dll
 0002:00034fda       _GetSystemMenu@8           00478fda f   user32:USER32.dll
 0002:00034fe0       _GetMenuItemID@8           00478fe0 f   user32:USER32.dll
 0002:00034fe6       _InsertMenuA@20            00478fe6 f   user32:USER32.dll
 0002:00034fec       _CreateMenu@0              00478fec f   user32:USER32.dll
 0002:00034ff2       _MessageBeep@4             00478ff2 f   user32:USER32.dll
 0002:00034ff8       _TrackPopupMenu@28         00478ff8 f   user32:USER32.dll
 0002:00034ffe       _GetMessagePos@0           00478ffe f   user32:USER32.dll
 0002:00035004       _SetWindowTextA@8          00479004 f   user32:USER32.dll
 0002:0003500a       _FlashWindow@8             0047900a f   user32:USER32.dll
 0002:00035010       _SetClassLongA@12          00479010 f   user32:USER32.dll
 0002:00035016       _SetFocus@4                00479016 f   user32:USER32.dll
 0002:0003501c       _SetWindowPlacement@8      0047901c f   user32:USER32.dll
 0002:00035022       _GetWindowPlacement@8      00479022 f   user32:USER32.dll
 0002:00035028       _ShowWindow@8              00479028 f   user32:USER32.dll
 0002:0003502e       _EnableWindow@8            0047902e f   user32:USER32.dll
 0002:00035034       _PostMessageA@16           00479034 f   user32:USER32.dll
 0002:0003503a       _SetCursor@4               0047903a f   user32:USER32.dll
 0002:00035040       _UnregisterHotKey@8        00479040 f   user32:USER32.dll
 0002:00035046       _RegisterHotKey@16         00479046 f   user32:USER32.dll
 0002:0003504c       _GetWindowTextA@12         0047904c f   user32:USER32.dll
 0002:00035052       _InvalidateRgn@12          00479052 f   user32:USER32.dll
 0002:00035058       _IsDlgButtonChecked@8      00479058 f   user32:USER32.dll
 0002:0003505e       _IsWindowVisible@4         0047905e f   user32:USER32.dll
 0002:00035064       _EndDeferWindowPos@4       00479064 f   user32:USER32.dll
 0002:0003506a       _DeferWindowPos@32         0047906a f   user32:USER32.dll
 0002:00035070       _IsWindowEnabled@4         00479070 f   user32:USER32.dll
 0002:00035076       _BeginDeferWindowPos@4     00479076 f   user32:USER32.dll
 0002:0003507c       _ModifyMenuA@20            0047907c f   user32:USER32.dll
 0002:00035082       _CreatePopupMenu@0         00479082 f   user32:USER32.dll
 0002:00035088       _SetWindowLongA@12         00479088 f   user32:USER32.dll
 0002:0003508e       _GetWindowLongA@8          0047908e f   user32:USER32.dll
 0002:00035094       _ReleaseCapture@0          00479094 f   user32:USER32.dll
 0002:0003509a       _ScreenToClient@8          0047909a f   user32:USER32.dll
 0002:000350a0       _GetCursorPos@4            004790a0 f   user32:USER32.dll
 0002:000350a6       _SetCapture@4              004790a6 f   user32:USER32.dll
 0002:000350ac       _GetWindow@8               004790ac f   user32:USER32.dll
 0002:000350b2       _SendDlgItemMessageA@20    004790b2 f   user32:USER32.dll
 0002:000350b8       _CreateWindowExA@48        004790b8 f   user32:USER32.dll
 0002:000350be       _GetClientRect@8           004790be f   user32:USER32.dll
 0002:000350c4       _GetWindowRect@8           004790c4 f   user32:USER32.dll
 0002:000350ca       _GetDlgItem@8              004790ca f   user32:USER32.dll
 0002:000350d0       _GetParent@4               004790d0 f   user32:USER32.dll
 0002:000350d6       _SetDlgItemTextA@12        004790d6 f   user32:USER32.dll
 0002:000350dc       _DispatchMessageA@4        004790dc f   user32:USER32.dll
 0002:000350e2       _TranslateMessage@4        004790e2 f   user32:USER32.dll
 0002:000350e8       _GetMessageA@16            004790e8 f   user32:USER32.dll
 0002:000350ee       _DefWindowProcA@16         004790ee f   user32:USER32.dll
 0002:000350f4       _CreateDialogParamA@20     004790f4 f   user32:USER32.dll
 0002:000350fa       _DialogBoxParamA@20        004790fa f   user32:USER32.dll
 0002:00035100       _IsDialogMessageA@8        00479100 f   user32:USER32.dll
 0002:00035106       _TranslateAcceleratorA@12  00479106 f   user32:USER32.dll
 0002:0003510c       _DestroyWindow@4           0047910c f   user32:USER32.dll
 0002:00035112       _EndDialog@8               00479112 f   user32:USER32.dll
 0002:00035118       _IsWindow@4                00479118 f   user32:USER32.dll
 0002:0003511e       _UpdateWindow@4            0047911e f   user32:USER32.dll
 0002:00035124       _GetDlgItemTextA@16        00479124 f   user32:USER32.dll
 0002:0003512a       _BringWindowToTop@4        0047912a f   user32:USER32.dll
 0002:00035130       _SystemParametersInfoA@16  00479130 f   user32:USER32.dll
 0002:00035136       _AttachThreadInput@12      00479136 f   user32:USER32.dll
 0002:0003513c       _GetWindowThreadProcessId@8 0047913c f   user32:USER32.dll
 0002:00035142       _GetForegroundWindow@0     00479142 f   user32:USER32.dll
 0002:00035148       _SetActiveWindow@4         00479148 f   user32:USER32.dll
 0002:0003514e       _SetWindowWord@12          0047914e f   user32:USER32.dll
 0002:00035154       _GetWindowWord@8           00479154 f   user32:USER32.dll
 0002:0003515a       _MoveWindow@24             0047915a f   user32:USER32.dll
 0002:00035160       _PeekMessageA@20           00479160 f   user32:USER32.dll
 0002:00035166       _CallWindowProcA@20        00479166 f   user32:USER32.dll
 0002:0003516c       _DeleteObject@4            0047916c f   gdi32:GDI32.dll
 0002:00035172       _CreateFontIndirectA@4     00479172 f   gdi32:GDI32.dll
 0002:00035178       _GetObjectA@12             00479178 f   gdi32:GDI32.dll
 0002:0003517e       _GetOpenFileNameA@4        0047917e f   comdlg32:COMDLG32.dll
 0002:00035184       _GetSaveFileNameA@4        00479184 f   comdlg32:COMDLG32.dll
 0002:0003518a       _ChooseFontA@4             0047918a f   comdlg32:COMDLG32.dll
 0002:00035190       _GetUserNameA@8            00479190 f   advapi32:ADVAPI32.dll
 0002:00035196       _RegOpenKeyExA@20          00479196 f   advapi32:ADVAPI32.dll
 0002:0003519c       _RegCreateKeyExA@36        0047919c f   advapi32:ADVAPI32.dll
 0002:000351a2       _RegCloseKey@4             004791a2 f   advapi32:ADVAPI32.dll
 0002:000351a8       _RegQueryValueA@16         004791a8 f   advapi32:ADVAPI32.dll
 0002:000351ae       _RegQueryValueExA@24       004791ae f   advapi32:ADVAPI32.dll
 0002:000351b4       _RegSetValueExA@24         004791b4 f   advapi32:ADVAPI32.dll
 0002:000351ba       _RegDeleteKeyA@8           004791ba f   advapi32:ADVAPI32.dll
 0002:000351c0       _RegDeleteValueA@8         004791c0 f   advapi32:ADVAPI32.dll
 0002:000351c6       _RegEnumKeyExA@32          004791c6 f   advapi32:ADVAPI32.dll
 0002:000351cc       _RegEnumValueA@32          004791cc f   advapi32:ADVAPI32.dll
 0002:000351d2       _Shell_NotifyIconA@8       004791d2 f   shell32:SHELL32.dll
 0002:000351d8       _ShellExecuteExA@4         004791d8 f   shell32:SHELL32.dll
 0002:000351de       _ExtractIconA@12           004791de f   shell32:SHELL32.dll
 0002:000351e4       _ShellExecuteA@24          004791e4 f   shell32:SHELL32.dll
 0002:000351ea       _SHGetPathFromIDListA@8    004791ea f   shell32:SHELL32.dll
 0002:000351f0       _SHBrowseForFolderA@4      004791f0 f   shell32:SHELL32.dll
 0002:000351f6       _SHGetMalloc@4             004791f6 f   shell32:SHELL32.dll
 0002:000351fc       _DragFinish@4              004791fc f   shell32:SHELL32.dll
 0002:00035202       _DragQueryFileA@16         00479202 f   shell32:SHELL32.dll
 0002:00035208       _CoInitialize@4            00479208 f   ole32:ole32.dll
 0002:0003520e       _CoUninitialize@0          0047920e f   ole32:ole32.dll
 0002:00035220       ??2@YAPAXI@Z               00479220 f   LIBCMTD:new.obj
 0002:000352c0       ??0bad_alloc@std@@QAE@XZ   004792c0 f i LIBCMTD:new.obj
 0002:00035300       ??1bad_alloc@std@@UAE@XZ   00479300 f i LIBCMTD:new.obj
 0002:00035330       ??_Gbad_alloc@std@@UAEPAXI@Z 00479330 f i LIBCMTD:new.obj
 0002:00035330       ??_Ebad_alloc@std@@UAEPAXI@Z 00479330 f i LIBCMTD:new.obj
 0002:00035370       ??0bad_alloc@std@@QAE@ABV01@@Z 00479370 f i LIBCMTD:new.obj
 0002:000353a0       ??3@YAXPAX@Z               004793a0 f   LIBCMTD:dbgdel.obj
 0002:000354c0       _memset                    004794c0 f   LIBCMTD:memset.obj
 0002:00035560       _memcpy                    00479560 f   LIBCMTD:memcpy.obj
 0002:000359a0       ?_JumpToContinuation@@YGXPAXPAUEHRegistrationNode@@@Z 004799a0 f   LIBCMTD:_trnsctrl_.obj
 0002:000359f0       ?_CallMemberFunction0@@YGXPAX0@Z 004799f0 f   LIBCMTD:_trnsctrl_.obj
 0002:00035a00       ?_CallMemberFunction1@@YGXPAX00@Z 00479a00 f   LIBCMTD:_trnsctrl_.obj
 0002:00035a10       ?_CallMemberFunction2@@YGXPAX00H@Z 00479a10 f   LIBCMTD:_trnsctrl_.obj
 0002:00035a20       ?_UnwindNestedFrames@@YGXPAUEHRegistrationNode@@PAUEHExceptionRecord@@@Z 00479a20 f   LIBCMTD:_trnsctrl_.obj
 0002:00035a90       ___CxxFrameHandler         00479a90 f   LIBCMTD:_trnsctrl_.obj
 0002:00035ae0       ___CxxFrameHandler3        00479ae0 f   LIBCMTD:_trnsctrl_.obj
 0002:00035b30       ___CxxFrameHandler2        00479b30 f   LIBCMTD:_trnsctrl_.obj
 0002:00035b80       ___CxxLongjmpUnwind@4      00479b80 f   LIBCMTD:_trnsctrl_.obj
 0002:00035bc0       ?_CallCatchBlock2@@YAPAXPAUEHRegistrationNode@@PBU_s_FuncInfo@@PAXHK@Z 00479bc0 f   LIBCMTD:_trnsctrl_.obj
 0002:00035cb0       ?_CallSETranslator@@YAHPAUEHExceptionRecord@@PAUEHRegistrationNode@@PAX2PBU_s_FuncInfo@@H1@Z 00479cb0 f   LIBCMTD:_trnsctrl_.obj
 0002:00035ec0       ?_GetRangeOfTrysToCheck@@YAPBU_s_TryBlockMapEntry@@PBU_s_FuncInfo@@HHPAI1@Z 00479ec0 f   LIBCMTD:_trnsctrl_.obj
 0002:00035f60       __CreateFrameInfo          00479f60 f   LIBCMTD:_trnsctrl_.obj
 0002:00035fa0       __IsExceptionObjectToBeDestroyed 00479fa0 f   LIBCMTD:_trnsctrl_.obj
 0002:00035fe0       __FindAndUnlinkFrame       00479fe0 f   LIBCMTD:_trnsctrl_.obj
 0002:00036050       @__security_check_cookie@4 0047a050 f   LIBCMTD:secchk.obj
 0002:00036070       ?name@type_info@@QBEPBDPAU__type_info_node@@@Z 0047a070 f   LIBCMTD:typinfo.obj
 0002:000360a0       ??1type_info@@UAE@XZ       0047a0a0 f   LIBCMTD:typinfo.obj
 0002:000360d0       ??_Etype_info@@UAEPAXI@Z   0047a0d0 f i LIBCMTD:typinfo.obj
 0002:000360d0       ??_Gtype_info@@UAEPAXI@Z   0047a0d0 f i LIBCMTD:typinfo.obj
 0002:00036110       ?_name_internal_method@type_info@@QBEPBDPAU__type_info_node@@@Z 0047a110 f   LIBCMTD:typinfo.obj
 0002:00036140       ?_type_info_dtor_internal_method@type_info@@QAEXXZ 0047a140 f   LIBCMTD:typinfo.obj
 0002:00036160       ??8type_info@@QBE_NABV0@@Z 0047a160 f   LIBCMTD:typinfo.obj
 0002:000361a0       ??9type_info@@QBE_NABV0@@Z 0047a1a0 f   LIBCMTD:typinfo.obj
 0002:000361e0       ?before@type_info@@QBEHABV1@@Z 0047a1e0 f   LIBCMTD:typinfo.obj
 0002:00036220       ?raw_name@type_info@@QBEPBDXZ 0047a220 f   LIBCMTD:typinfo.obj
 0002:00036240       ??0type_info@@AAE@ABV0@@Z  0047a240 f   LIBCMTD:typinfo.obj
 0002:00036270       ??4type_info@@AAEAAV0@ABV0@@Z 0047a270 f   LIBCMTD:typinfo.obj
 0002:00036290       _strcmp                    0047a290 f   LIBCMTD:strcmp.obj
 0002:00036340       _strcpy                    0047a340 f   LIBCMTD:strcat.obj
 0002:00036350       _strcat                    0047a350 f   LIBCMTD:strcat.obj
 0002:00036480       _srand                     0047a480 f   LIBCMTD:rand.obj
 0002:000364a0       _rand                      0047a4a0 f   LIBCMTD:rand.obj
 0002:000364f0       _atol                      0047a4f0 f   LIBCMTD:atox.obj
 0002:00036510       __atol_l                   0047a510 f   LIBCMTD:atox.obj
 0002:00036540       _atoi                      0047a540 f   LIBCMTD:atox.obj
 0002:00036560       __atoi_l                   0047a560 f   LIBCMTD:atox.obj
 0002:00036580       __atoi64                   0047a580 f   LIBCMTD:atox.obj
 0002:000365a0       __atoi64_l                 0047a5a0 f   LIBCMTD:atox.obj
 0002:000365e0       _strchr                    0047a5e0 f   LIBCMTD:strchr.obj
 0002:000365e6       ___from_strstr_to_strchr   0047a5e6     LIBCMTD:strchr.obj
 0002:000366e0       _strlen                    0047a6e0 f   LIBCMTD:strlen.obj
 0002:00036790       _strstr                    0047a790 f   LIBCMTD:strstr.obj
 0002:00036840       __alldiv                   0047a840 f   LIBCMTD:lldiv.obj
 0002:00036920       __alloca_probe             0047a920     LIBCMTD:chkstk.obj
 0002:00036920       __chkstk                   0047a920 f   LIBCMTD:chkstk.obj
 0002:00036960       _malloc                    0047a960 f   LIBCMTD:dbgmalloc.obj
 0002:000369a0       __allmul                   0047a9a0 f   LIBCMTD:llmul.obj
 0002:000369f0       __allshr                   0047a9f0 f   LIBCMTD:llshr.obj
 0002:00036a20       __allshl                   0047aa20 f   LIBCMTD:llshl.obj
 0002:00036a50       __allrem                   0047aa50 f   LIBCMTD:llrem.obj
 0002:00036b30       _free                      0047ab30 f   LIBCMTD:dbgfree.obj
 0002:00036b50       _strtol                    0047ab50 f   LIBCMTD:strtol.obj
 0002:000371d0       ??0_LocaleUpdate@@QAE@PAUlocaleinfo_struct@@@Z 0047b1d0 f i LIBCMTD:strtol.obj
 0002:000372e0       ??1_LocaleUpdate@@QAE@XZ   0047b2e0 f i LIBCMTD:strtol.obj
 0002:00037320       ?GetLocaleT@_LocaleUpdate@@QAEPAUlocaleinfo_struct@@XZ 0047b320 f i LIBCMTD:strtol.obj
 0002:00037340       __strtol_l                 0047b340 f   LIBCMTD:strtol.obj
 0002:00037370       _strtoul                   0047b370 f   LIBCMTD:strtol.obj
 0002:000373d0       __strtoul_l                0047b3d0 f   LIBCMTD:strtol.obj
 0002:00037400       _strrchr                   0047b400 f   LIBCMTD:strrchr.obj
 0002:00037440       _abs                       0047b440 f   LIBCMTD:abs.obj
 0002:00037470       __abs64                    0047b470 f   LIBCMTD:abs.obj
 0002:000374d0       _memcmp                    0047b4d0 f   LIBCMTD:memcmp.obj
 0002:000381f0       _memmove                   0047c1f0 f   LIBCMTD:memmove.obj
 0002:00038630       __toupper                  0047c630 f   LIBCMTD:toupper.obj
 0002:00038640       __toupper_l                0047c640 f   LIBCMTD:toupper.obj
 0002:00038890       _toupper                   0047c890 f   LIBCMTD:toupper.obj
 0002:000388f0       _realloc                   0047c8f0 f   LIBCMTD:dbgrealloc.obj
 0002:00038920       ??_M@YGXPAXIHP6EX0@Z@Z     0047c920 f   LIBCMTD:ehvecdtr.obj
 0002:00038a00       ?__ArrayUnwind@@YGXPAXIHP6EX0@Z@Z 0047ca00 f   LIBCMTD:ehvecdtr.obj
 0002:00038af0       _strncpy                   0047caf0 f   LIBCMTD:strncpy.obj
 0002:00038c60       ??_L@YGXPAXIHP6EX0@Z1@Z    0047cc60 f   LIBCMTD:ehvecctr.obj
 0002:00038d40       __purecall                 0047cd40 f   LIBCMTD:purevirt.obj
 0002:00038d90       __set_purecall_handler     0047cd90 f   LIBCMTD:purevirt.obj
 0002:00038de0       __get_purecall_handler     0047cde0 f   LIBCMTD:purevirt.obj
 0002:00038e00       _WinMainCRTStartup         0047ce00 f   LIBCMTD:wincrt0.obj
 0002:00039150       __onexit                   0047d150 f   LIBCMTD:onexit.obj
 0002:000393a0       _atexit                    0047d3a0 f   LIBCMTD:onexit.obj
 0002:000393d0       ___onexitinit              0047d3d0 f   LIBCMTD:onexit.obj
 0002:00039440       __initp_heap_handler       0047d440 f   LIBCMTD:handler.obj
 0002:00039460       ?_set_new_handler@@YAP6AHI@ZP6AHI@Z@Z 0047d460 f   LIBCMTD:handler.obj
 0002:000394c0       ?_set_new_handler@@YAP6AHI@ZH@Z 0047d4c0 f   LIBCMTD:handler.obj
 0002:00039510       ?_query_new_handler@@YAP6AHI@ZXZ 0047d510 f   LIBCMTD:handler.obj
 0002:00039530       __callnewh                 0047d530 f   LIBCMTD:handler.obj
 0002:00039580       __CxxThrowException@8      0047d580 f   LIBCMTD:throw.obj
 0002:000395f0       ??0exception@std@@QAE@XZ   0047d5f0 f   LIBCMTD:stdexcpt.obj
 0002:00039630       ??_Gexception@std@@UAEPAXI@Z 0047d630 f i LIBCMTD:stdexcpt.obj
 0002:00039630       ??_Eexception@std@@UAEPAXI@Z 0047d630 f i LIBCMTD:stdexcpt.obj
 0002:00039670       ??0exception@std@@QAE@ABQBD@Z 0047d670 f   LIBCMTD:stdexcpt.obj
 0002:00039720       ??0exception@std@@QAE@ABQBDH@Z 0047d720 f   LIBCMTD:stdexcpt.obj
 0002:00039760       ??0exception@std@@QAE@ABV01@@Z 0047d760 f   LIBCMTD:stdexcpt.obj
 0002:00039830       ??4exception@std@@QAEAAV01@ABV01@@Z 0047d830 f   LIBCMTD:stdexcpt.obj
 0002:00039900       ??1exception@std@@UAE@XZ   0047d900 f   LIBCMTD:stdexcpt.obj
 0002:00039940       ?what@exception@std@@UBEPBDXZ 0047d940 f   LIBCMTD:stdexcpt.obj
 0002:00039970       ??0bad_cast@std@@QAE@PBD@Z 0047d970 f   LIBCMTD:stdexcpt.obj
 0002:000399a0       ??_Gbad_cast@std@@UAEPAXI@Z 0047d9a0 f i LIBCMTD:stdexcpt.obj
 0002:000399a0       ??_Ebad_cast@std@@UAEPAXI@Z 0047d9a0 f i LIBCMTD:stdexcpt.obj
 0002:000399e0       ??0bad_cast@std@@QAE@ABV01@@Z 0047d9e0 f   LIBCMTD:stdexcpt.obj
 0002:00039a10       ??1bad_cast@std@@UAE@XZ    0047da10 f   LIBCMTD:stdexcpt.obj
 0002:00039a40       ??0bad_typeid@std@@QAE@PBD@Z 0047da40 f   LIBCMTD:stdexcpt.obj
 0002:00039a70       ??_Gbad_typeid@std@@UAEPAXI@Z 0047da70 f i LIBCMTD:stdexcpt.obj
 0002:00039a70       ??_Ebad_typeid@std@@UAEPAXI@Z 0047da70 f i LIBCMTD:stdexcpt.obj
 0002:00039ab0       ??0bad_typeid@std@@QAE@ABV01@@Z 0047dab0 f   LIBCMTD:stdexcpt.obj
 0002:00039ae0       ??1bad_typeid@std@@UAE@XZ  0047dae0 f   LIBCMTD:stdexcpt.obj
 0002:00039b10       ??0__non_rtti_object@std@@QAE@PBD@Z 0047db10 f   LIBCMTD:stdexcpt.obj
 0002:00039b40       ??_E__non_rtti_object@std@@UAEPAXI@Z 0047db40 f i LIBCMTD:stdexcpt.obj
 0002:00039b40       ??_G__non_rtti_object@std@@UAEPAXI@Z 0047db40 f i LIBCMTD:stdexcpt.obj
 0002:00039b80       ??0__non_rtti_object@std@@QAE@ABV01@@Z 0047db80 f   LIBCMTD:stdexcpt.obj
 0002:00039bb0       ??1__non_rtti_object@std@@UAE@XZ 0047dbb0 f   LIBCMTD:stdexcpt.obj
 0002:00039be0       __mtinitlocks              0047dbe0 f   LIBCMTD:mlock.obj
 0002:00039c90       __mtdeletelocks            0047dc90 f   LIBCMTD:mlock.obj
 0002:00039d80       __mtinitlocknum            0047dd80 f   LIBCMTD:mlock.obj
 0002:00039f20       __lock                     0047df20 f   LIBCMTD:mlock.obj
 0002:00039f70       __unlock                   0047df70 f   LIBCMTD:mlock.obj
 0002:00039f90       __lockerr_exit             0047df90 f   LIBCMTD:mlock.obj
 0002:00039fc0       __malloc_dbg               0047dfc0 f   LIBCMTD:dbgheap.obj
 0002:0003a000       __nh_malloc                0047e000 f   LIBCMTD:dbgheap.obj
 0002:0003a030       __nh_malloc_dbg            0047e030 f   LIBCMTD:dbgheap.obj
 0002:0003a120       __heap_alloc               0047e120 f   LIBCMTD:dbgheap.obj
 0002:0003a5e0       __heap_alloc_dbg           0047e5e0 f   LIBCMTD:dbgheap.obj
 0002:0003a650       __calloc_dbg_impl          0047e650 f   LIBCMTD:dbgheap.obj
 0002:0003a750       __calloc_dbg               0047e750 f   LIBCMTD:dbgheap.obj
 0002:0003a7c0       __recalloc                 0047e7c0 f   LIBCMTD:dbgheap.obj
 0002:0003a800       __realloc_dbg              0047e800 f   LIBCMTD:dbgheap.obj
 0002:0003b040       __recalloc_dbg             0047f040 f   LIBCMTD:dbgheap.obj
 0002:0003b180       __expand                   0047f180 f   LIBCMTD:dbgheap.obj
 0002:0003b1b0       __expand_dbg               0047f1b0 f   LIBCMTD:dbgheap.obj
 0002:0003b300       __free_nolock              0047f300 f   LIBCMTD:dbgheap.obj
 0002:0003b320       __free_dbg                 0047f320 f   LIBCMTD:dbgheap.obj
 0002:0003b3c0       __free_dbg_nolock          0047f3c0 f   LIBCMTD:dbgheap.obj
 0002:0003b9e0       __msize                    0047f9e0 f   LIBCMTD:dbgheap.obj
 0002:0003ba00       __msize_dbg                0047fa00 f   LIBCMTD:dbgheap.obj
 0002:0003bc60       __CrtSetBreakAlloc         0047fc60 f   LIBCMTD:dbgheap.obj
 0002:0003bc90       __CrtSetDbgBlockType       0047fc90 f   LIBCMTD:dbgheap.obj
 0002:0003bdb0       __CrtSetAllocHook          0047fdb0 f   LIBCMTD:dbgheap.obj
 0002:0003bde0       __CrtGetAllocHook          0047fde0 f   LIBCMTD:dbgheap.obj
 0002:0003be50       __CrtCheckMemory           0047fe50 f   LIBCMTD:dbgheap.obj
 0002:0003c3c0       __CrtSetDbgFlag            004803c0 f   LIBCMTD:dbgheap.obj
 0002:0003c560       __CrtDoForAllClientObjects 00480560 f   LIBCMTD:dbgheap.obj
 0002:0003c6d0       __CrtIsValidPointer        004806d0 f   LIBCMTD:dbgheap.obj
 0002:0003c6f0       __CrtIsValidHeapPointer    004806f0 f   LIBCMTD:dbgheap.obj
 0002:0003c7b0       __CrtIsMemoryBlock         004807b0 f   LIBCMTD:dbgheap.obj
 0002:0003c980       __CrtReportBlockType       00480980 f   LIBCMTD:dbgheap.obj
 0002:0003c9c0       __CrtSetDumpClient         004809c0 f   LIBCMTD:dbgheap.obj
 0002:0003c9f0       __CrtGetDumpClient         004809f0 f   LIBCMTD:dbgheap.obj
 0002:0003ca00       __CrtMemCheckpoint         00480a00 f   LIBCMTD:dbgheap.obj
 0002:0003cca0       __CrtMemDifference         00480ca0 f   LIBCMTD:dbgheap.obj
 0002:0003cf40       __CrtMemDumpAllObjectsSince 00480f40 f   LIBCMTD:dbgheap.obj
 0002:0003d570       __invoke_watson_if_oneof   00481570 f i LIBCMTD:dbgheap.obj
 0002:0003d5d0       __CrtDumpMemoryLeaks       004815d0 f   LIBCMTD:dbgheap.obj
 0002:0003d660       __CrtMemDumpStatistics     00481660 f   LIBCMTD:dbgheap.obj
 0002:0003d7b0       __aligned_malloc           004817b0 f   LIBCMTD:dbgheap.obj
 0002:0003d7e0       __aligned_malloc_dbg       004817e0 f   LIBCMTD:dbgheap.obj
 0002:0003d810       __aligned_realloc          00481810 f   LIBCMTD:dbgheap.obj
 0002:0003d840       __aligned_recalloc         00481840 f   LIBCMTD:dbgheap.obj
 0002:0003d870       __aligned_realloc_dbg      00481870 f   LIBCMTD:dbgheap.obj
 0002:0003d8a0       __aligned_recalloc_dbg     004818a0 f   LIBCMTD:dbgheap.obj
 0002:0003d8e0       __aligned_offset_malloc    004818e0 f   LIBCMTD:dbgheap.obj
 0002:0003d910       __aligned_offset_malloc_dbg 00481910 f   LIBCMTD:dbgheap.obj
 0002:0003db20       __aligned_offset_realloc   00481b20 f   LIBCMTD:dbgheap.obj
 0002:0003db50       __aligned_offset_recalloc  00481b50 f   LIBCMTD:dbgheap.obj
 0002:0003db80       __aligned_offset_realloc_dbg 00481b80 f   LIBCMTD:dbgheap.obj
 0002:0003df00       __aligned_offset_recalloc_dbg 00481f00 f   LIBCMTD:dbgheap.obj
 0002:0003e050       __aligned_free             00482050 f   LIBCMTD:dbgheap.obj
 0002:0003e070       __aligned_free_dbg         00482070 f   LIBCMTD:dbgheap.obj
 0002:0003e150       __CrtSetDebugFillThreshold 00482150 f   LIBCMTD:dbgheap.obj
 0002:0003e180       __CrtSetCheckCount         00482180 f   LIBCMTD:dbgheap.obj
 0002:0003e1a0       __CrtGetCheckCount         004821a0 f   LIBCMTD:dbgheap.obj
 0002:0003e1b0       __aligned_msize            004821b0 f   LIBCMTD:dbgheap.obj
 0002:0003e1e0       __aligned_msize_dbg        004821e0 f   LIBCMTD:dbgheap.obj
 0002:0003e330       __CrtSetReportHookW2       00482330 f   LIBCMTD:dbgrptw.obj
 0002:0003e720       __CrtDbgReportW            00482720 f   LIBCMTD:dbgrptw.obj
 0002:0003e770       __CrtDbgReportWV           00482770 f i LIBCMTD:dbgrptw.obj
 0002:0003e7a0       ___crtMessageWindowW       004827a0 f   LIBCMTD:dbgrptw.obj
 0002:0003eca0       __invoke_watson_if_error   00482ca0 f i LIBCMTD:dbgrptw.obj
 0002:0003ece0       ?_CrtDbgReportW@@YAHHPBGH00ZZ 00482ce0 f   LIBCMTD:dbgrptw.obj
 0002:0003ed30       __except_handler4          00482d30 f   LIBCMTD:chandler4.obj
 0002:0003efe0       __VEC_memzero              00482fe0 f   LIBCMTD:p4_memset.obj
 0002:0003f110       __get_sse2_info            00483110 f   LIBCMTD:cpu_disp.obj
 0002:0003f280       ___sse2_available_init     00483280 f   LIBCMTD:cpu_disp.obj
 0002:0003f2a0       __VEC_memcpy               004832a0 f   LIBCMTD:p4_memcpy.obj
 0002:0003f470       ___InternalCxxFrameHandler 00483470 f   LIBCMTD:frame.obj
 0002:0003fbe0       ??0bad_exception@std@@QAE@PBD@Z 00483be0 f i LIBCMTD:frame.obj
 0002:0003fc10       ??1bad_exception@std@@UAE@XZ 00483c10 f i LIBCMTD:frame.obj
 0002:0003fc40       ??_Gbad_exception@std@@UAEPAXI@Z 00483c40 f i LIBCMTD:frame.obj
 0002:0003fc40       ??_Ebad_exception@std@@UAEPAXI@Z 00483c40 f i LIBCMTD:frame.obj
 0002:0003fc80       ??0bad_exception@std@@QAE@ABV01@@Z 00483c80 f i LIBCMTD:frame.obj
 0002:0003fe90       ___TypeMatch               00483e90 f   LIBCMTD:frame.obj
 0002:0003ff70       ___FrameUnwindFilter       00483f70 f   LIBCMTD:frame.obj
 0002:00040000       ___FrameUnwindToState      00484000 f   LIBCMTD:frame.obj
 0002:00040690       ___BuildCatchObjectHelper  00484690 f   LIBCMTD:frame.obj
 0002:000409a0       ___BuildCatchObject        004849a0 f   LIBCMTD:frame.obj
 0002:00040af0       ___DestructExceptionObject 00484af0 f   LIBCMTD:frame.obj
 0002:00040bd0       ___AdjustPointer           00484bd0 f   LIBCMTD:frame.obj
 0002:00040c30       ?__uncaught_exception@@YA_NXZ 00484c30 f   LIBCMTD:frame.obj
 0002:00040c50       ___CxxExceptionFilter      00484c50 f   LIBCMTD:frame.obj
 0002:00040eb0       ___CxxRegisterExceptionObject 00484eb0 f   LIBCMTD:frame.obj
 0002:00041030       ___CxxDetectRethrow        00485030 f   LIBCMTD:frame.obj
 0002:000410e0       ___CxxUnregisterExceptionObject 004850e0 f   LIBCMTD:frame.obj
 0002:000412c0       ___CxxQueryExceptionSize   004852c0 f   LIBCMTD:frame.obj
 0002:000412d0       ___CxxCallUnwindDtor       004852d0 f   LIBCMTD:frame.obj
 0002:00041370       ___CxxCallUnwindDelDtor    00485370 f   LIBCMTD:frame.obj
 0002:00041410       ___CxxCallUnwindStdDelDtor 00485410 f   LIBCMTD:frame.obj
 0002:000414b0       ___CxxCallUnwindVecDtor    004854b0 f   LIBCMTD:frame.obj
 0002:00041780       ?_is_exception_typeof@@YAHABVtype_info@@PAU_EXCEPTION_POINTERS@@@Z 00485780 f   LIBCMTD:frame.obj
 0002:00041890       __CallSettingFrame@12      00485890 f   LIBCMTD:lowhelpr.obj
 0002:000418b7       __NLG_Return               004858b7     LIBCMTD:lowhelpr.obj
 0002:000418f0       __encode_pointer           004858f0 f   LIBCMTD:tidtable.obj
 0002:000419b0       __crt_wait_module_handle   004859b0 f i LIBCMTD:tidtable.obj
 0002:000419f0       __encoded_null             004859f0 f   LIBCMTD:tidtable.obj
 0002:00041a10       __decode_pointer           00485a10 f   LIBCMTD:tidtable.obj
 0002:00041ad0       ___crtTlsAlloc@4           00485ad0 f   LIBCMTD:tidtable.obj
 0002:00041af0       ___fls_getvalue@4          00485af0 f   LIBCMTD:tidtable.obj
 0002:00041b20       ___get_flsindex            00485b20 f   LIBCMTD:tidtable.obj
 0002:00041b30       ___set_flsgetvalue         00485b30 f   LIBCMTD:tidtable.obj
 0002:00041b90       ___fls_setvalue@8          00485b90 f   LIBCMTD:tidtable.obj
 0002:00041bc0       __mtinit                   00485bc0 f   LIBCMTD:tidtable.obj
 0002:00041e50       __mtterm                   00485e50 f   LIBCMTD:tidtable.obj
 0002:00041ec0       __initptd                  00485ec0 f   LIBCMTD:tidtable.obj
 0002:00042070       __getptd_noexit            00486070 f   LIBCMTD:tidtable.obj
 0002:00042160       __getptd                   00486160 f   LIBCMTD:tidtable.obj
 0002:00042190       __freefls@4                00486190 f   LIBCMTD:tidtable.obj
 0002:00042420       __freeptd                  00486420 f   LIBCMTD:tidtable.obj
 0002:000424c0       ___threadid                004864c0 f   LIBCMTD:tidtable.obj
 0002:000424d0       ___threadhandle            004864d0 f   LIBCMTD:tidtable.obj
 0002:000424e0       __initp_eh_hooks           004864e0 f   LIBCMTD:hooks.obj
 0002:00042500       ?terminate@@YAXXZ          00486500 f   LIBCMTD:hooks.obj
 0002:000425a0       ?unexpected@@YAXXZ         004865a0 f   LIBCMTD:hooks.obj
 0002:000425d0       ?_inconsistency@@YAXXZ     004865d0 f   LIBCMTD:hooks.obj
 0002:00042680       ___report_gsfailure        00486680 f   LIBCMTD:gs_report.obj
 0002:000427e0       ?_Type_info_dtor@type_info@@CAXPAV1@@Z 004867e0 f   LIBCMTD:typname.obj
 0002:00042930       ?_Name_base@type_info@@CAPBDPBV1@PAU__type_info_node@@@Z 00486930 f   LIBCMTD:typname.obj
 0002:00042b40       ?_Type_info_dtor_internal@type_info@@CAXPAV1@@Z 00486b40 f   LIBCMTD:typname.obj
 0002:00042c90       ___unDNameHelper           00486c90 f   LIBCMTD:typname.obj
 0002:00042ce0       ?_Name_base_internal@type_info@@CAPBDPBV1@PAU__type_info_node@@@Z 00486ce0 f   LIBCMTD:typname.obj
 0002:00042f10       ___clean_type_info_names_internal 00486f10 f   LIBCMTD:typname.obj
 0002:00042ff0       __strtoi64                 00486ff0 f   LIBCMTD:strtoq.obj
 0002:000436c0       __strtoi64_l               004876c0 f   LIBCMTD:strtoq.obj
 0002:000436f0       __strtoui64                004876f0 f   LIBCMTD:strtoq.obj
 0002:00043750       __strtoui64_l              00487750 f   LIBCMTD:strtoq.obj
 0002:00043780       ____setlc_active_func      00487780 f   LIBCMTD:setlocal.obj
 0002:00043790       ____unguarded_readlc_active_add_func 00487790 f   LIBCMTD:setlocal.obj
 0002:000437a0       ___freetlocinfo            004877a0 f   LIBCMTD:setlocal.obj
 0002:00043b40       ___addlocaleref            00487b40 f   LIBCMTD:setlocal.obj
 0002:00043cb0       ___removelocaleref         00487cb0 f   LIBCMTD:setlocal.obj
 0002:00043e30       ___updatetlocinfo          00487e30 f   LIBCMTD:setlocal.obj
 0002:00043fd0       __configthreadlocale       00487fd0 f   LIBCMTD:setlocal.obj
 0002:00044120       __locterm                  00488120 f   LIBCMTD:setlocal.obj
 0002:000441e0       __free_locale              004881e0 f   LIBCMTD:setlocal.obj
 0002:00044370       ___free_locale             00488370 f   LIBCMTD:setlocal.obj
 0002:00044390       __create_locale            00488390 f   LIBCMTD:setlocal.obj
 0002:00044640       ___create_locale           00488640 f   LIBCMTD:setlocal.obj
 0002:00044660       __get_current_locale       00488660 f   LIBCMTD:setlocal.obj
 0002:000447c0       ___get_current_locale      004887c0 f   LIBCMTD:setlocal.obj
 0002:000447d0       _setlocale                 004887d0 f   LIBCMTD:setlocal.obj
 0002:00045aa0       __expandlocale             00489aa0 f   LIBCMTD:setlocal.obj
 0002:00045df0       ___init_dummy              00489df0 f   LIBCMTD:setlocal.obj
 0002:00045e00       __strcats                  00489e00 f   LIBCMTD:setlocal.obj
 0002:00045ea0       ___lc_strtolc              00489ea0 f   LIBCMTD:setlocal.obj
 0002:00046120       ___lc_lctostr              0048a120 f   LIBCMTD:setlocal.obj
 0002:000461e0       __chvalidator              0048a1e0 f   LIBCMTD:isctype.obj
 0002:00046240       __chvalidator_l            0048a240 f   LIBCMTD:isctype.obj
 0002:00046320       __isctype_l                0048a320 f   LIBCMTD:isctype.obj
 0002:00046480       __isctype                  0048a480 f   LIBCMTD:isctype.obj
 0002:000464d0       __initp_misc_invarg        0048a4d0 f   LIBCMTD:invarg.obj
 0002:000464f0       __invalid_parameter        0048a4f0 f   LIBCMTD:invarg.obj
 0002:00046580       __invoke_watson            0048a580 f   LIBCMTD:invarg.obj
 0002:00046720       __set_invalid_parameter_handler 0048a720 f   LIBCMTD:invarg.obj
 0002:00046780       __get_invalid_parameter_handler 0048a780 f   LIBCMTD:invarg.obj
 0002:000467c0       ?_invalid_parameter@@YAXPBG00II@Z 0048a7c0 f   LIBCMTD:invarg.obj
 0002:000467f0       ?_invoke_watson@@YAXPBG00II@Z 0048a7f0 f   LIBCMTD:invarg.obj
 0002:00046820       __dosmaperr                0048a820 f   LIBCMTD:dosmap.obj
 0002:00046860       __get_errno_from_oserr     0048a860 f   LIBCMTD:dosmap.obj
 0002:00046900       __set_errno                0048a900 f   LIBCMTD:dosmap.obj
 0002:00046940       __get_errno                0048a940 f   LIBCMTD:dosmap.obj
 0002:000469e0       __set_doserrno             0048a9e0 f   LIBCMTD:dosmap.obj
 0002:00046a20       __get_doserrno             0048aa20 f   LIBCMTD:dosmap.obj
 0002:00046ac0       __errno                    0048aac0 f   LIBCMTD:dosmap.obj
 0002:00046af0       ___doserrno                0048aaf0 f   LIBCMTD:dosmap.obj
 0002:00046b20       ___updatetmbcinfo          0048ab20 f   LIBCMTD:mbctype.obj
 0002:00046c70       __setmbcp                  0048ac70 f   LIBCMTD:mbctype.obj
 0002:00047100       __setmbcp_nolock           0048b100 f   LIBCMTD:mbctype.obj
 0002:00047ae0       __getmbcp                  0048bae0 f   LIBCMTD:mbctype.obj
 0002:00047b70       ___initmbctable            0048bb70 f   LIBCMTD:mbctype.obj
 0002:00047ba0       ___crtLCMapStringA         0048bba0 f   LIBCMTD:a_map.obj
 0002:00048250       __MarkAllocaS              0048c250 f i LIBCMTD:a_map.obj
 0002:00048280       __freea                    0048c280 f i LIBCMTD:a_map.obj
 0002:00048360       __isleadbyte_l             0048c360 f i LIBCMTD:_wctype.obj
 0002:000483c0       _isleadbyte                0048c3c0 f i LIBCMTD:_wctype.obj
 0002:000483e0       __iswalpha_l               0048c3e0 f i LIBCMTD:_wctype.obj
 0002:00048410       _iswalpha                  0048c410 f i LIBCMTD:_wctype.obj
 0002:00048430       __iswupper_l               0048c430 f i LIBCMTD:_wctype.obj
 0002:00048450       _iswupper                  0048c450 f i LIBCMTD:_wctype.obj
 0002:00048470       __iswlower_l               0048c470 f i LIBCMTD:_wctype.obj
 0002:00048490       _iswlower                  0048c490 f i LIBCMTD:_wctype.obj
 0002:000484b0       __iswdigit_l               0048c4b0 f i LIBCMTD:_wctype.obj
 0002:000484d0       _iswdigit                  0048c4d0 f i LIBCMTD:_wctype.obj
 0002:000484f0       __iswxdigit_l              0048c4f0 f i LIBCMTD:_wctype.obj
 0002:00048520       _iswxdigit                 0048c520 f i LIBCMTD:_wctype.obj
 0002:00048540       __iswspace_l               0048c540 f i LIBCMTD:_wctype.obj
 0002:00048560       _iswspace                  0048c560 f i LIBCMTD:_wctype.obj
 0002:00048580       __iswpunct_l               0048c580 f i LIBCMTD:_wctype.obj
 0002:000485a0       _iswpunct                  0048c5a0 f i LIBCMTD:_wctype.obj
 0002:000485c0       __iswalnum_l               0048c5c0 f i LIBCMTD:_wctype.obj
 0002:000485f0       _iswalnum                  0048c5f0 f i LIBCMTD:_wctype.obj
 0002:00048610       __iswprint_l               0048c610 f i LIBCMTD:_wctype.obj
 0002:00048640       _iswprint                  0048c640 f i LIBCMTD:_wctype.obj
 0002:00048660       __iswgraph_l               0048c660 f i LIBCMTD:_wctype.obj
 0002:00048690       _iswgraph                  0048c690 f i LIBCMTD:_wctype.obj
 0002:000486b0       __iswcntrl_l               0048c6b0 f i LIBCMTD:_wctype.obj
 0002:000486d0       _iswcntrl                  0048c6d0 f i LIBCMTD:_wctype.obj
 0002:000486f0       _iswascii                  0048c6f0 f i LIBCMTD:_wctype.obj
 0002:00048710       __iswcsym_l                0048c710 f i LIBCMTD:_wctype.obj
 0002:00048760       ___iswcsym                 0048c760 f i LIBCMTD:_wctype.obj
 0002:000487b0       __iswcsymf_l               0048c7b0 f i LIBCMTD:_wctype.obj
 0002:00048800       ___iswcsymf                0048c800 f i LIBCMTD:_wctype.obj
 0002:00048850       _abort                     0048c850 f   LIBCMTD:abort.obj
 0002:000489d0       __set_abort_behavior       0048c9d0 f   LIBCMTD:abort.obj
 0002:00048a10       __FF_MSGBANNER             0048ca10 f   LIBCMTD:crt0msg.obj
 0002:00048a70       __NMSG_WRITE               0048ca70 f   LIBCMTD:crt0msg.obj
 0002:00048db0       __GET_RTERRMSG             0048cdb0 f   LIBCMTD:crt0msg.obj
 0002:00048e10       ___getlocaleinfo           0048ce10 f   LIBCMTD:inithelp.obj
 0002:00049160       __initp_misc_purevirt      0048d160 f   LIBCMTD:inithelp.obj
 0002:00049180       ?__CxxUnhandledExceptionFilter@@YGJPAU_EXCEPTION_POINTERS@@@Z 0048d180 f   LIBCMTD:unhandld.obj
 0002:00049200       ___CxxSetUnhandledExceptionFilter 0048d200 f   LIBCMTD:unhandld.obj
 0002:00049220       ___security_init_cookie    0048d220 f   LIBCMTD:gs_support.obj
 0002:00049340       __crt_waiting_on_module_handle 0048d340 f   LIBCMTD:crt0dat.obj
 0002:000493b0       __cinit                    0048d3b0 f   LIBCMTD:crt0dat.obj
 0002:00049480       _exit                      0048d480 f   LIBCMTD:crt0dat.obj
 0002:000494a0       __exit                     0048d4a0 f   LIBCMTD:crt0dat.obj
 0002:000494c0       __cexit                    0048d4c0 f   LIBCMTD:crt0dat.obj
 0002:000494e0       __c_exit                   0048d4e0 f   LIBCMTD:crt0dat.obj
 0002:00049500       __amsg_exit                0048d500 f   LIBCMTD:crt0dat.obj
 0002:00049550       ___freeCrtMemory           0048d550 f   LIBCMTD:crt0dat.obj
 0002:00049970       ___crtCorExitProcess       0048d970 f   LIBCMTD:crt0dat.obj
 0002:000499c0       ___crtExitProcess          0048d9c0 f   LIBCMTD:crt0dat.obj
 0002:000499f0       __lockexit                 0048d9f0 f   LIBCMTD:crt0dat.obj
 0002:00049a10       __unlockexit               0048da10 f   LIBCMTD:crt0dat.obj
 0002:00049a30       __init_pointers            0048da30 f   LIBCMTD:crt0dat.obj
 0002:00049b20       __initterm_e               0048db20 f   LIBCMTD:crt0dat.obj
 0002:00049b70       __get_wpgmptr              0048db70 f   LIBCMTD:crt0dat.obj
 0002:00049ca0       __get_pgmptr               0048dca0 f   LIBCMTD:crt0dat.obj
 0002:00049dd0       __initp_misc_winxfltr      0048ddd0 f   LIBCMTD:winxfltr.obj
 0002:00049de0       ___CppXcptFilter           0048dde0 f   LIBCMTD:winxfltr.obj
 0002:00049e10       __XcptFilter               0048de10 f   LIBCMTD:winxfltr.obj
 0002:0004a0c0       __wincmdln                 0048e0c0 f   LIBCMTD:wincmdln.obj
 0002:0004a1c0       __setenvp                  0048e1c0 f   LIBCMTD:stdenvp.obj
 0002:0004a3d0       __setargv                  0048e3d0 f   LIBCMTD:stdargv.obj
 0002:0004a530       __set_pgmptr               0048e530 f i LIBCMTD:stdargv.obj
 0002:0004a990       ___crtGetEnvironmentStringsA 0048e990 f   LIBCMTD:a_env.obj
 0002:0004ac30       __ioinit                   0048ec30 f   LIBCMTD:ioinit.obj
 0002:0004b200       __ioterm                   0048f200 f   LIBCMTD:ioinit.obj
 0002:0004b2d0       __RTC_Initialize           0048f2d0 f   LIBCMTD:_initsect_.obj
 0002:0004b300       __RTC_Terminate            0048f300 f   LIBCMTD:_initsect_.obj
 0002:0004b330       ___heap_select             0048f330 f   LIBCMTD:heapinit.obj
 0002:0004b350       __heap_init                0048f350 f   LIBCMTD:heapinit.obj
 0002:0004b3f0       __heap_term                0048f3f0 f   LIBCMTD:heapinit.obj
 0002:0004b4c0       __get_heap_handle          0048f4c0 f   LIBCMTD:heapinit.obj
 0002:0004b510       _strcpy_s                  0048f510 f   LIBCMTD:strcpy_s.obj
 0002:0004b8a0       __initp_misc_initcrit      0048f8a0 f   LIBCMTD:initcrit.obj
 0002:0004b8c0       ___crtInitCritSecAndSpinCount 0048f8c0 f   LIBCMTD:initcrit.obj
 0002:0004b990       _V6_HeapAlloc              0048f990 f   LIBCMTD:malloc.obj
 0002:0004ba50       __malloc_base              0048fa50 f   LIBCMTD:malloc.obj
 0002:0004bb00       __heap_alloc_base          0048fb00 f i LIBCMTD:malloc.obj
 0002:0004bbf0       __CrtSetReportHook2        0048fbf0 f   LIBCMTD:dbgrpt.obj
 0002:0004bfe0       __CrtDbgReport             0048ffe0 f   LIBCMTD:dbgrpt.obj
 0002:0004c030       __CrtDbgReportV            00490030 f i LIBCMTD:dbgrpt.obj
 0002:0004c060       ___crtMessageWindowA       00490060 f   LIBCMTD:dbgrpt.obj
 0002:0004c560       __CrtDefaultAllocHook      00490560 f   LIBCMTD:dbghook.obj
 0002:0004c570       __crt_debugger_hook        00490570 f   LIBCMTD:dbghook.obj
 0002:0004c590       __expand_base              00490590 f   LIBCMTD:expand.obj
 0002:0004c910       __realloc_base             00490910 f   LIBCMTD:realloc.obj
 0002:0004cd90       __free_base                00490d90 f   LIBCMTD:free.obj
 0002:0004cf00       __heapchk                  00490f00 f   LIBCMTD:heapchk.obj
 0002:0004d010       __heapset                  00491010 f   LIBCMTD:heapchk.obj
 0002:0004d020       __get_sbh_threshold        00491020 f   LIBCMTD:sbheap.obj
 0002:0004d080       __set_sbh_threshold        00491080 f   LIBCMTD:sbheap.obj
 0002:0004d280       __set_amblksiz             00491280 f   LIBCMTD:sbheap.obj
 0002:0004d3d0       __get_amblksiz             004913d0 f   LIBCMTD:sbheap.obj
 0002:0004d500       ___sbh_heap_init           00491500 f   LIBCMTD:sbheap.obj
 0002:0004d580       ___sbh_find_block          00491580 f   LIBCMTD:sbheap.obj
 0002:0004d5f0       ___sbh_verify_block        004915f0 f   LIBCMTD:sbheap.obj
 0002:0004d660       ___sbh_free_block          00491660 f   LIBCMTD:sbheap.obj
 0002:0004dd90       ___sbh_alloc_block         00491d90 f   LIBCMTD:sbheap.obj
 0002:0004e400       ___sbh_alloc_new_region    00492400 f   LIBCMTD:sbheap.obj
 0002:0004e560       ___sbh_alloc_new_group     00492560 f   LIBCMTD:sbheap.obj
 0002:0004e7d0       ___sbh_resize_block        004927d0 f   LIBCMTD:sbheap.obj
 0002:0004ef10       ___sbh_heapmin             00492f10 f   LIBCMTD:sbheap.obj
 0002:0004f090       ___sbh_heap_check          00493090 f   LIBCMTD:sbheap.obj
 0002:0004f6c0       _sprintf                   004936c0 f   LIBCMTD:sprintf.obj
 0002:0004f8a0       __sprintf_l                004938a0 f   LIBCMTD:sprintf.obj
 0002:0004f8e0       _sprintf_s                 004938e0 f   LIBCMTD:sprintf.obj
 0002:0004f920       __sprintf_s_l              00493920 f   LIBCMTD:sprintf.obj
 0002:0004f960       __snprintf_s               00493960 f   LIBCMTD:sprintf.obj
 0002:0004f9a0       __snprintf_s_l             004939a0 f   LIBCMTD:sprintf.obj
 0002:0004f9e0       __sprintf_p                004939e0 f   LIBCMTD:sprintf.obj
 0002:0004fa20       __sprintf_p_l              00493a20 f   LIBCMTD:sprintf.obj
 0002:0004fa60       __scprintf                 00493a60 f   LIBCMTD:sprintf.obj
 0002:0004fa90       __scprintf_p               00493a90 f   LIBCMTD:sprintf.obj
 0002:0004fac0       __scprintf_l               00493ac0 f   LIBCMTD:sprintf.obj
 0002:0004faf0       __scprintf_p_l             00493af0 f   LIBCMTD:sprintf.obj
 0002:0004fb20       __CrtDbgBreak              00493b20 f   LIBCMTD:dbgrptt.obj
 0002:0004fb30       __CrtSetReportMode         00493b30 f   LIBCMTD:dbgrptt.obj
 0002:0004fcc0       __CrtSetReportFile         00493cc0 f   LIBCMTD:dbgrptt.obj
 0002:0004fdf0       __CrtSetReportHook         00493df0 f   LIBCMTD:dbgrptt.obj
 0002:0004fe20       __CrtGetReportHook         00493e20 f   LIBCMTD:dbgrptt.obj
 0002:0004fe30       __VCrtDbgReportA           00493e30 f   LIBCMTD:dbgrptt.obj
 0002:00050860       __VCrtDbgReportW           00494860 f   LIBCMTD:dbgrptt.obj
 0002:000513e0       __initp_misc_winsig        004953e0 f   LIBCMTD:winsig.obj
 0002:00051420       _signal                    00495420 f   LIBCMTD:winsig.obj
 0002:000519f0       _raise                     004959f0 f   LIBCMTD:winsig.obj
 0002:00051e40       ___get_sigabrt             00495e40 f   LIBCMTD:winsig.obj
 0002:00051e60       ___fpecode                 00495e60 f   LIBCMTD:winsig.obj
 0002:00051e80       ___pxcptinfoptrs           00495e80 f   LIBCMTD:winsig.obj
 0002:00051ea0       ___crtMessageBoxW          00495ea0 f   LIBCMTD:crtmboxw.obj
 0002:00052150       __swprintf                 00496150 f   LIBCMTD:swprintf.obj
 0002:000523a0       ___swprintf_l              004963a0 f   LIBCMTD:swprintf.obj
 0002:000523e0       _swprintf_s                004963e0 f   LIBCMTD:swprintf.obj
 0002:00052420       __snwprintf_s              00496420 f   LIBCMTD:swprintf.obj
 0002:00052460       __swprintf_p               00496460 f   LIBCMTD:swprintf.obj
 0002:000524a0       __swprintf_s_l             004964a0 f   LIBCMTD:swprintf.obj
 0002:000524e0       __snwprintf_s_l            004964e0 f   LIBCMTD:swprintf.obj
 0002:00052520       __swprintf_p_l             00496520 f   LIBCMTD:swprintf.obj
 0002:00052560       __scwprintf                00496560 f   LIBCMTD:swprintf.obj
 0002:00052590       __scwprintf_p              00496590 f   LIBCMTD:swprintf.obj
 0002:000525c0       __scwprintf_l              004965c0 f   LIBCMTD:swprintf.obj
 0002:000525f0       __scwprintf_p_l            004965f0 f   LIBCMTD:swprintf.obj
 0002:00052620       _memcpy_s                  00496620 f   LIBCMTD:memcpy_s.obj
 0002:00052810       _wcslen                    00496810 f   LIBCMTD:wcslen.obj
 0002:00052850       _wcscpy_s                  00496850 f   LIBCMTD:wcscpy_s.obj
 0002:00052be8       __local_unwind4            00496be8 f   LIBCMTD:exsup4.obj
 0002:00052cbe       __seh_longjmp_unwind4@4    00496cbe f   LIBCMTD:exsup4.obj
 0002:00052cda       @_EH4_CallFilterFunc@8     00496cda f   LIBCMTD:exsup4.obj
 0002:00052cf1       @_EH4_TransferToHandler@8  00496cf1 f   LIBCMTD:exsup4.obj
 0002:00052d0a       @_EH4_GlobalUnwind@4       00496d0a f   LIBCMTD:exsup4.obj
 0002:00052d24       @_EH4_LocalUnwind@16       00496d24 f   LIBCMTD:exsup4.obj
 0002:00052d90       __ValidateImageBase        00496d90 f   LIBCMTD:pesect.obj
 0002:00052e10       __FindPESection            00496e10 f   LIBCMTD:pesect.obj
 0002:00052eb0       __IsNonwritableInCurrentImage 00496eb0 f   LIBCMTD:pesect.obj
 0002:00053010       ?_ValidateRead@@YAHPBXI@Z  00497010 f   LIBCMTD:validate.obj
 0002:00053040       ?_ValidateWrite@@YAHPAXI@Z 00497040 f   LIBCMTD:validate.obj
 0002:00053070       ?_ValidateExecute@@YAHP6GHXZ@Z 00497070 f   LIBCMTD:validate.obj
 0002:0005309c       __global_unwind2           0049709c f   LIBCMTD:exsup.obj
 0002:00053101       __local_unwind2            00497101 f   LIBCMTD:exsup.obj
 0002:00053185       __abnormal_termination     00497185 f   LIBCMTD:exsup.obj
 0002:000531a8       __NLG_Notify1              004971a8 f   LIBCMTD:exsup.obj
 0002:000531b1       __NLG_Notify               004971b1 f   LIBCMTD:exsup.obj
 0002:000531c8       __NLG_Dispatch             004971c8     LIBCMTD:exsup.obj
 0002:000531c8       __NLG_Dispatch2            004971c8     LIBCMTD:exsup.obj
 0002:000531d0       __NLG_Call                 004971d0 f   LIBCMTD:exsup.obj
 0002:000531d2       __NLG_Return2              004971d2     LIBCMTD:exsup.obj
 0002:00053220       ___unDName                 00497220 f   LIBCMTD:undname.obj
 0002:00053330       ?Constructor@HeapManager@@QAEXP6APAXI@ZP6AXPAX@Z@Z 00497330 f i LIBCMTD:undname.obj
 0002:00053380       ?Destructor@HeapManager@@QAEXXZ 00497380 f i LIBCMTD:undname.obj
 0002:000533e0       ___unDNameEx               004973e0 f   LIBCMTD:undname.obj
 0002:000534f0       ??0UnDecorator@@QAE@PADPBDHP6APADJ@ZK@Z 004974f0 f i LIBCMTD:undname.obj
 0002:000535b0       ??BUnDecorator@@QAEPADXZ   004975b0 f i LIBCMTD:undname.obj
 0002:00053870       ?dbGetString@DName@@QBEPADXZ 00497870 f   LIBCMTD:undname.obj
 0002:000538a0       ?getDecoratedName@UnDecorator@@CA?AVDName@@XZ 004978a0 f   LIBCMTD:undname.obj
 0002:00053c80       ?getSymbolName@UnDecorator@@CA?AVDName@@XZ 00497c80 f i LIBCMTD:undname.obj
 0002:00053d10       ?getZName@UnDecorator@@CA?AVDName@@_N0@Z 00497d10 f   LIBCMTD:undname.obj
 0002:00054060       ?getOperatorName@UnDecorator@@CA?AVDName@@_NPA_N@Z 00498060 f i LIBCMTD:undname.obj
 0002:00054c20       ?getStringEncoding@UnDecorator@@CA?AVDName@@PADH@Z 00498c20 f   LIBCMTD:undname.obj
 0002:00054d60       ?getScope@UnDecorator@@CA?AVDName@@XZ 00498d60 f   LIBCMTD:undname.obj
 0002:00055230       ?getSignedDimension@UnDecorator@@CA?AVDName@@XZ 00499230 f   LIBCMTD:undname.obj
 0002:000552d0       ?getDimension@UnDecorator@@CA?AVDName@@_N@Z 004992d0 f   LIBCMTD:undname.obj
 0002:00055630       ?getNumberOfDimensions@UnDecorator@@CAHXZ 00499630 f   LIBCMTD:undname.obj
 0002:00055770       ?getTemplateName@UnDecorator@@CA?AVDName@@_N@Z 00499770 f   LIBCMTD:undname.obj
 0002:000559a0       ?getTemplateArgumentList@UnDecorator@@CA?AVDName@@XZ 004999a0 f   LIBCMTD:undname.obj
 0002:00055cc0       ?getTemplateConstant@UnDecorator@@CA?AVDName@@XZ 00499cc0 f   LIBCMTD:undname.obj
 0002:00056270       ?composeDeclaration@UnDecorator@@CA?AVDName@@ABV2@@Z 0049a270 f i LIBCMTD:undname.obj
 0002:00057de0       ?getTypeEncoding@UnDecorator@@CAHXZ 0049bde0 f i LIBCMTD:undname.obj
 0002:00058ab0       ?getBasedType@UnDecorator@@CA?AVDName@@XZ 0049cab0 f   LIBCMTD:undname.obj
 0002:00058ba0       ?getScopedName@UnDecorator@@CA?AVDName@@XZ 0049cba0 f   LIBCMTD:undname.obj
 0002:00058d00       ?getCallingConvention@UnDecorator@@CA?AVDName@@XZ 0049cd00 f   LIBCMTD:undname.obj
 0002:00058eb0       ?getReturnType@UnDecorator@@CA?AVDName@@PAV2@@Z 0049ceb0 f   LIBCMTD:undname.obj
 0002:00058f10       ?getDataType@UnDecorator@@CA?AVDName@@PAV2@@Z 0049cf10 f   LIBCMTD:undname.obj
 0002:00059070       ?getPrimaryDataType@UnDecorator@@CA?AVDName@@ABV2@@Z 0049d070 f   LIBCMTD:undname.obj
 0002:000593c0       ?getArgumentTypes@UnDecorator@@CA?AVDName@@XZ 0049d3c0 f   LIBCMTD:undname.obj
 0002:00059570       ?getArgumentList@UnDecorator@@CA?AVDName@@XZ 0049d570 f   LIBCMTD:undname.obj
 0002:00059710       ?getThrowTypes@UnDecorator@@CA?AVDName@@XZ 0049d710 f   LIBCMTD:undname.obj
 0002:000597f0       ?getBasicDataType@UnDecorator@@CA?AVDName@@ABV2@@Z 0049d7f0 f   LIBCMTD:undname.obj
 0002:00059f00       ?getECSUDataType@UnDecorator@@CA?AVDName@@XZ 0049df00 f   LIBCMTD:undname.obj
 0002:0005a150       ?getECSUName@UnDecorator@@CA?AVDName@@XZ 0049e150 f i LIBCMTD:undname.obj
 0002:0005a170       ?getEnumType@UnDecorator@@CA?AVDName@@XZ 0049e170 f i LIBCMTD:undname.obj
 0002:0005a310       ?getFunctionIndirectType@UnDecorator@@CA?AVDName@@ABV2@@Z 0049e310 f   LIBCMTD:undname.obj
 0002:0005a860       ?getPtrRefType@UnDecorator@@CA?AVDName@@ABV2@0D@Z 0049e860 f   LIBCMTD:undname.obj
 0002:0005aa20       ?getExtendedDataIndirectType@UnDecorator@@CA?AVDName@@AADAA_NH@Z 0049ea20 f   LIBCMTD:undname.obj
 0002:0005acb0       ?getDataIndirectType@UnDecorator@@CA?AVDName@@ABV2@D0H@Z 0049ecb0 f   LIBCMTD:undname.obj
 0002:0005b570       ?getPtrRefDataType@UnDecorator@@CA?AVDName@@ABV2@H@Z 0049f570 f i LIBCMTD:undname.obj
 0002:0005b700       ?getArrayType@UnDecorator@@CA?AVDName@@ABV2@@Z 0049f700 f i LIBCMTD:undname.obj
 0002:0005b9c0       ?getLexicalFrame@UnDecorator@@CA?AVDName@@XZ 0049f9c0 f i LIBCMTD:undname.obj
 0002:0005ba10       ?getThisType@UnDecorator@@CA?AVDName@@XZ 0049fa10 f i LIBCMTD:undname.obj
 0002:0005ba50       ?getPointerType@UnDecorator@@CA?AVDName@@ABV2@0@Z 0049fa50 f i LIBCMTD:undname.obj
 0002:0005ba80       ?getPointerTypeArray@UnDecorator@@CA?AVDName@@ABV2@0@Z 0049fa80 f i LIBCMTD:undname.obj
 0002:0005bab0       ?getReferenceType@UnDecorator@@CA?AVDName@@ABV2@0@Z 0049fab0 f i LIBCMTD:undname.obj
 0002:0005bae0       ?getDisplacement@UnDecorator@@CA?AVDName@@XZ 0049fae0 f i LIBCMTD:undname.obj
 0002:0005bb00       ?getCallIndex@UnDecorator@@CA?AVDName@@XZ 0049fb00 f i LIBCMTD:undname.obj
 0002:0005bb20       ?getGuardNumber@UnDecorator@@CA?AVDName@@XZ 0049fb20 f i LIBCMTD:undname.obj
 0002:0005bb40       ?getVbTableType@UnDecorator@@CA?AVDName@@ABV2@@Z 0049fb40 f i LIBCMTD:undname.obj
 0002:0005bb60       ?getVCallThunkType@UnDecorator@@CA?AVDName@@XZ 0049fb60 f i LIBCMTD:undname.obj
 0002:0005bbe0       ?getVfTableType@UnDecorator@@CA?AVDName@@ABV2@@Z 0049fbe0 f i LIBCMTD:undname.obj
 0002:0005be10       ?getStorageConvention@UnDecorator@@CA?AVDName@@XZ 0049fe10 f i LIBCMTD:undname.obj
 0002:0005be30       ?getDataIndirectType@UnDecorator@@CA?AVDName@@XZ 0049fe30 f i LIBCMTD:undname.obj
 0002:0005be70       ?getVdispMapType@UnDecorator@@CA?AVDName@@ABV2@@Z 0049fe70 f i LIBCMTD:undname.obj
 0002:0005bf00       ?getExternalDataType@UnDecorator@@CA?AVDName@@ABV2@@Z 0049ff00 f i LIBCMTD:undname.obj
 0002:0005bfc0       ?doMSKeywords@UnDecorator@@SAHXZ 0049ffc0 f i LIBCMTD:undname.obj
 0002:0005bfe0       ?doPtr64@UnDecorator@@SAHXZ 0049ffe0 f i LIBCMTD:undname.obj
 0002:0005c000       ?doFunctionReturns@UnDecorator@@SAHXZ 004a0000 f i LIBCMTD:undname.obj
 0002:0005c020       ?doAllocationModel@UnDecorator@@SAHXZ 004a0020 f i LIBCMTD:undname.obj
 0002:0005c040       ?doAllocationLanguage@UnDecorator@@SAHXZ 004a0040 f i LIBCMTD:undname.obj
 0002:0005c060       ?doThisTypes@UnDecorator@@SAHXZ 004a0060 f i LIBCMTD:undname.obj
 0002:0005c080       ?doAccessSpecifiers@UnDecorator@@SAHXZ 004a0080 f i LIBCMTD:undname.obj
 0002:0005c0a0       ?doThrowTypes@UnDecorator@@SAHXZ 004a00a0 f i LIBCMTD:undname.obj
 0002:0005c0c0       ?doMemberTypes@UnDecorator@@SAHXZ 004a00c0 f i LIBCMTD:undname.obj
 0002:0005c0e0       ?doNameOnly@UnDecorator@@SAHXZ 004a00e0 f i LIBCMTD:undname.obj
 0002:0005c100       ?doTypeOnly@UnDecorator@@SAHXZ 004a0100 f i LIBCMTD:undname.obj
 0002:0005c120       ?haveTemplateParameters@UnDecorator@@SAHXZ 004a0120 f i LIBCMTD:undname.obj
 0002:0005c140       ?doEcsu@UnDecorator@@SAHXZ 004a0140 f i LIBCMTD:undname.obj
 0002:0005c160       ?doEllipsis@UnDecorator@@SAHXZ 004a0160 f i LIBCMTD:undname.obj
 0002:0005c180       ?UScore@UnDecorator@@SAPBDW4Tokens@@@Z 004a0180 f   LIBCMTD:undname.obj
 0002:0005c1c0       ?doUnderScore@UnDecorator@@SAHXZ 004a01c0 f i LIBCMTD:undname.obj
 0002:0005c1e0       ??2@YAPAXIAAVHeapManager@@H@Z 004a01e0 f i LIBCMTD:undname.obj
 0002:0005c200       ?getMemory@HeapManager@@QAEPAXIH@Z 004a0200 f   LIBCMTD:undname.obj
 0002:0005c350       ??0Block@HeapManager@@QAE@XZ 004a0350 f i LIBCMTD:undname.obj
 0002:0005c370       ??H@YA?AVDName@@DABV0@@Z   004a0370 f i LIBCMTD:undname.obj
 0002:0005c3b0       ??H@YA?AVDName@@W4DNameStatus@@ABV0@@Z 004a03b0 f i LIBCMTD:undname.obj
 0002:0005c3f0       ??H@YA?AVDName@@PBDABV0@@Z 004a03f0 f i LIBCMTD:undname.obj
 0002:0005c430       ??0DName@@QAE@XZ           004a0430 f i LIBCMTD:undname.obj
 0002:0005c520       ??0DName@@QAE@D@Z          004a0520 f   LIBCMTD:undname.obj
 0002:0005c630       ??0DName@@QAE@ABV0@@Z      004a0630 f i LIBCMTD:undname.obj
 0002:0005c660       ??0DName@@QAE@PAV0@@Z      004a0660 f   LIBCMTD:undname.obj
 0002:0005c7e0       ??0DName@@QAE@PBD@Z        004a07e0 f   LIBCMTD:undname.obj
 0002:0005c900       ??0DName@@QAE@AAPBDD@Z     004a0900 f   LIBCMTD:undname.obj
 0002:0005cc70       ?doNoIdentCharCheck@UnDecorator@@SAHXZ 004a0c70 f i LIBCMTD:undname.obj
 0002:0005cc90       ??0DName@@QAE@_K@Z         004a0c90 f   LIBCMTD:undname.obj
 0002:0005ce20       ??0DName@@QAE@_J@Z         004a0e20 f   LIBCMTD:undname.obj
 0002:0005d000       ??0DName@@QAE@W4DNameStatus@@@Z 004a1000 f   LIBCMTD:undname.obj
 0002:0005d160       ?isValid@DName@@QBEHXZ     004a1160 f i LIBCMTD:undname.obj
 0002:0005d190       ?isEmpty@DName@@QBEHXZ     004a1190 f i LIBCMTD:undname.obj
 0002:0005d1b0       ?status@DName@@QBE?AW4DNameStatus@@XZ 004a11b0 f i LIBCMTD:undname.obj
 0002:0005d1d0       ?setPtrRef@DName@@QAEAAV1@XZ 004a11d0 f i LIBCMTD:undname.obj
 0002:0005d200       ?isPtrRef@DName@@QBEHXZ    004a1200 f i LIBCMTD:undname.obj
 0002:0005d220       ?isUDC@DName@@QBEHXZ       004a1220 f i LIBCMTD:undname.obj
 0002:0005d270       ?setIsUDC@DName@@QAEXXZ    004a1270 f i LIBCMTD:undname.obj
 0002:0005d2b0       ?isUDTThunk@DName@@QBEHXZ  004a12b0 f i LIBCMTD:undname.obj
 0002:0005d300       ?setIsArray@DName@@QAEXXZ  004a1300 f i LIBCMTD:undname.obj
 0002:0005d330       ?isArray@DName@@QBEHXZ     004a1330 f i LIBCMTD:undname.obj
 0002:0005d350       ?isNoTE@DName@@QBEHXZ      004a1350 f i LIBCMTD:undname.obj
 0002:0005d370       ?setIsNoTE@DName@@QAEXXZ   004a1370 f i LIBCMTD:undname.obj
 0002:0005d3a0       ?isPinPtr@DName@@QBEHXZ    004a13a0 f i LIBCMTD:undname.obj
 0002:0005d3c0       ?setIsPinPtr@DName@@QAEXXZ 004a13c0 f i LIBCMTD:undname.obj
 0002:0005d3f0       ?isComArray@DName@@QBEHXZ  004a13f0 f i LIBCMTD:undname.obj
 0002:0005d410       ?setIsComArray@DName@@QAEXXZ 004a1410 f i LIBCMTD:undname.obj
 0002:0005d440       ?isVCallThunk@DName@@QBEHXZ 004a1440 f i LIBCMTD:undname.obj
 0002:0005d460       ?setIsVCallThunk@DName@@QAEXXZ 004a1460 f i LIBCMTD:undname.obj
 0002:0005d490       ?length@DName@@QBEHXZ      004a1490 f i LIBCMTD:undname.obj
 0002:0005d4d0       ?getLastChar@DName@@QBEDXZ 004a14d0 f i LIBCMTD:undname.obj
 0002:0005d510       ?getString@DName@@QBEPADPADH@Z 004a1510 f i LIBCMTD:undname.obj
 0002:0005d5c0       ?getString@DName@@QBEPADPAD0@Z 004a15c0 f i LIBCMTD:undname.obj
 0002:0005d610       ??HDName@@QBE?AV0@D@Z      004a1610 f   LIBCMTD:undname.obj
 0002:0005d660       ??HDName@@QBE?AV0@PBD@Z    004a1660 f   LIBCMTD:undname.obj
 0002:0005d6b0       ??HDName@@QBE?AV0@ABV0@@Z  004a16b0 f   LIBCMTD:undname.obj
 0002:0005d700       ??HDName@@QBE?AV0@PAV0@@Z  004a1700 f   LIBCMTD:undname.obj
 0002:0005d750       ??HDName@@QBE?AV0@W4DNameStatus@@@Z 004a1750 f   LIBCMTD:undname.obj
 0002:0005d7a0       ?append@DName@@AAEXPAVDNameNode@@@Z 004a17a0 f   LIBCMTD:undname.obj
 0002:0005d850       ??YDName@@QAEAAV0@D@Z      004a1850 f   LIBCMTD:undname.obj
 0002:0005d900       ??YDName@@QAEAAV0@PBD@Z    004a1900 f   LIBCMTD:undname.obj
 0002:0005d9c0       ??YDName@@QAEAAV0@ABV0@@Z  004a19c0 f   LIBCMTD:undname.obj
 0002:0005da40       ??YDName@@QAEAAV0@PAV0@@Z  004a1a40 f   LIBCMTD:undname.obj
 0002:0005db20       ??YDName@@QAEAAV0@W4DNameStatus@@@Z 004a1b20 f   LIBCMTD:undname.obj
 0002:0005dba0       ??_5DName@@QAEAAV0@ABV0@@Z 004a1ba0 f   LIBCMTD:undname.obj
 0002:0005dc10       ??4DName@@QAEAAV0@D@Z      004a1c10 f i LIBCMTD:undname.obj
 0002:0005dd20       ??4DName@@QAEAAV0@PBD@Z    004a1d20 f   LIBCMTD:undname.obj
 0002:0005de30       ??4DName@@QAEAAV0@ABV0@@Z  004a1e30 f   LIBCMTD:undname.obj
 0002:0005de60       ??4DName@@QAEAAV0@PAV0@@Z  004a1e60 f   LIBCMTD:undname.obj
 0002:0005dfe0       ??4DName@@QAEAAV0@W4DNameStatus@@@Z 004a1fe0 f   LIBCMTD:undname.obj
 0002:0005e120       ?doPchar@DName@@AAEXPBDH@Z 004a2120 f   LIBCMTD:undname.obj
 0002:0005e2b0       ?isFull@Replicator@@QBEHXZ 004a22b0 f i LIBCMTD:undname.obj
 0002:0005e2d0       ??0Replicator@@QAE@XZ      004a22d0 f i LIBCMTD:undname.obj
 0002:0005e2f0       ??YReplicator@@QAEAAV0@ABVDName@@@Z 004a22f0 f   LIBCMTD:undname.obj
 0002:0005e3a0       ??AReplicator@@QBE?AVDName@@H@Z 004a23a0 f   LIBCMTD:undname.obj
 0002:0005e420       ??0DNameNode@@IAE@XZ       004a2420 f   LIBCMTD:undname.obj
 0002:0005e440       ??0charNode@@QAE@D@Z       004a2440 f   LIBCMTD:undname.obj
 0002:0005e480       ?length@charNode@@UBEHXZ   004a2480 f i LIBCMTD:undname.obj
 0002:0005e4a0       ?getLastChar@charNode@@UBEDXZ 004a24a0 f i LIBCMTD:undname.obj
 0002:0005e4c0       ?getString@charNode@@UBEPADPAD0@Z 004a24c0 f i LIBCMTD:undname.obj
 0002:0005e500       ??0pcharNode@@QAE@PBDH@Z   004a2500 f   LIBCMTD:undname.obj
 0002:0005e5c0       ?length@pcharNode@@UBEHXZ  004a25c0 f i LIBCMTD:undname.obj
 0002:0005e5e0       ?getLastChar@pcharNode@@UBEDXZ 004a25e0 f i LIBCMTD:undname.obj
 0002:0005e630       ?getString@pcharNode@@UBEPADPAD0@Z 004a2630 f i LIBCMTD:undname.obj
 0002:0005e670       ?getStringHelper@@YAPADPAD00H@Z 004a2670 f i LIBCMTD:undname.obj
 0002:0005e6c0       ??0pDNameNode@@QAE@PAVDName@@@Z 004a26c0 f   LIBCMTD:undname.obj
 0002:0005e740       ?length@pDNameNode@@UBEHXZ 004a2740 f i LIBCMTD:undname.obj
 0002:0005e780       ?getLastChar@pDNameNode@@UBEDXZ 004a2780 f i LIBCMTD:undname.obj
 0002:0005e7c0       ?getString@pDNameNode@@UBEPADPAD0@Z 004a27c0 f i LIBCMTD:undname.obj
 0002:0005e810       ??0DNameStatusNode@@AAE@W4DNameStatus@@@Z 004a2810 f   LIBCMTD:undname.obj
 0002:0005e870       ?length@DNameStatusNode@@UBEHXZ 004a2870 f i LIBCMTD:undname.obj
 0002:0005e890       ?getLastChar@DNameStatusNode@@UBEDXZ 004a2890 f i LIBCMTD:undname.obj
 0002:0005e8c0       ?getString@DNameStatusNode@@UBEPADPAD0@Z 004a28c0 f i LIBCMTD:undname.obj
 0002:0005e910       ?make@DNameStatusNode@@SAPAV1@W4DNameStatus@@@Z 004a2910 f i LIBCMTD:undname.obj
 0002:0005e9f0       ??0pairNode@@QAE@PAVDNameNode@@0@Z 004a29f0 f   LIBCMTD:undname.obj
 0002:0005ea40       ?length@pairNode@@UBEHXZ   004a2a40 f i LIBCMTD:undname.obj
 0002:0005eaa0       ?getLastChar@pairNode@@UBEDXZ 004a2aa0 f i LIBCMTD:undname.obj
 0002:0005eb00       ?getString@pairNode@@UBEPADPAD0@Z 004a2b00 f i LIBCMTD:undname.obj
 0002:0005ec80       __aullrem                  004a2c80 f   LIBCMTD:ullrem.obj
 0002:0005ed20       __aulldiv                  004a2d20 f   LIBCMTD:ulldiv.obj
 0002:0005edb0       __Getdays_l                004a2db0 f   LIBCMTD:strftime.obj
 0002:0005efe0       __Getdays                  004a2fe0 f   LIBCMTD:strftime.obj
 0002:0005f000       __Getmonths_l              004a3000 f   LIBCMTD:strftime.obj
 0002:0005f230       __Getmonths                004a3230 f   LIBCMTD:strftime.obj
 0002:0005f250       __Gettnames_l              004a3250 f   LIBCMTD:strftime.obj
 0002:0005f910       __Gettnames                004a3910 f   LIBCMTD:strftime.obj
 0002:0005f930       __strftime_l               004a3930 f   LIBCMTD:strftime.obj
 0002:0005f960       _strftime                  004a3960 f   LIBCMTD:strftime.obj
 0002:0005f990       __Strftime                 004a3990 f   LIBCMTD:strftime.obj
 0002:0005f9c0       __Strftime_l               004a39c0 f   LIBCMTD:strftime.obj
 0002:00061f40       ___pwctype_func            004a5f40 f   LIBCMTD:ctype.obj
 0002:00061f50       ___pctype_func             004a5f50 f   LIBCMTD:ctype.obj
 0002:00061fb0       _localeconv                004a5fb0 f   LIBCMTD:lconv.obj
 0002:00062010       ___init_time               004a6010 f   LIBCMTD:inittime.obj
 0002:000628f0       ___free_lc_time            004a68f0 f   LIBCMTD:inittime.obj
 0002:00062cc0       ___init_numeric            004a6cc0 f   LIBCMTD:initnum.obj
 0002:000630f0       ___free_lconv_num          004a70f0 f   LIBCMTD:initnum.obj
 0002:00063180       ___init_monetary           004a7180 f   LIBCMTD:initmon.obj
 0002:000637c0       ___free_lconv_mon          004a77c0 f   LIBCMTD:initmon.obj
 0002:000638f0       ___init_ctype              004a78f0 f   LIBCMTD:initctyp.obj
 0002:00064010       ____mb_cur_max_func        004a8010 f   LIBCMTD:initctyp.obj
 0002:00064070       ____mb_cur_max_l_func      004a8070 f   LIBCMTD:initctyp.obj
 0002:000640b0       ____lc_codepage_func       004a80b0 f   LIBCMTD:initctyp.obj
 0002:00064110       ____lc_collate_cp_func     004a8110 f   LIBCMTD:initctyp.obj
 0002:00064170       ____lc_handle_func         004a8170 f   LIBCMTD:initctyp.obj
 0002:000641d0       ___init_collate            004a81d0 f   LIBCMTD:initcoll.obj
 0002:000641e0       _strncpy_s                 004a81e0 f   LIBCMTD:strncpy_s.obj
 0002:000646d0       _strcspn                   004a86d0 f   LIBCMTD:strcspn.obj
 0002:00064730       _strncmp                   004a8730 f   LIBCMTD:strncmp.obj
 0002:00064900       _strpbrk                   004a8900 f   LIBCMTD:strpbrk.obj
 0002:00064950       ___crtGetStringTypeA       004a8950 f   LIBCMTD:a_str.obj
 0002:00064c80       _strcat_s                  004a8c80 f   LIBCMTD:strcat_s.obj
 0002:00065150       ___get_qualified_locale    004a9150 f   LIBCMTD:getqloc.obj
 0002:00066370       ___ansicp                  004aa370 f   LIBCMTD:convrtcp.obj
 0002:000663e0       ___convertcp               004aa3e0 f   LIBCMTD:convrtcp.obj
 0002:000666c0       __iswctype_l               004aa6c0 f   LIBCMTD:iswctype.obj
 0002:00066790       _iswctype                  004aa790 f   LIBCMTD:iswctype.obj
 0002:00066840       _is_wctype                 004aa840 f   LIBCMTD:iswctype.obj
 0002:00066860       __set_error_mode           004aa860 f   LIBCMTD:errmode.obj
 0002:00066950       ___set_app_type            004aa950 f   LIBCMTD:errmode.obj
 0002:00066970       ___get_app_type            004aa970 f   LIBCMTD:errmode.obj
 0002:00066980       ___crtMessageBoxA          004aa980 f   LIBCMTD:crtmbox.obj
 0002:00066c30       __isalpha_l                004aac30 f i LIBCMTD:_ctype.obj
 0002:00066ce0       _isalpha                   004aace0 f i LIBCMTD:_ctype.obj
 0002:00066d20       __isupper_l                004aad20 f i LIBCMTD:_ctype.obj
 0002:00066dc0       _isupper                   004aadc0 f i LIBCMTD:_ctype.obj
 0002:00066e00       __islower_l                004aae00 f i LIBCMTD:_ctype.obj
 0002:00066ea0       _islower                   004aaea0 f i LIBCMTD:_ctype.obj
 0002:00066ee0       __isdigit_l                004aaee0 f i LIBCMTD:_ctype.obj
 0002:00066f80       _isdigit                   004aaf80 f i LIBCMTD:_ctype.obj
 0002:00066fc0       __isxdigit_l               004aafc0 f i LIBCMTD:_ctype.obj
 0002:00067070       _isxdigit                  004ab070 f i LIBCMTD:_ctype.obj
 0002:000670b0       __isspace_l                004ab0b0 f i LIBCMTD:_ctype.obj
 0002:00067150       _isspace                   004ab150 f i LIBCMTD:_ctype.obj
 0002:00067190       __ispunct_l                004ab190 f i LIBCMTD:_ctype.obj
 0002:00067230       _ispunct                   004ab230 f i LIBCMTD:_ctype.obj
 0002:00067270       __isalnum_l                004ab270 f i LIBCMTD:_ctype.obj
 0002:00067320       _isalnum                   004ab320 f i LIBCMTD:_ctype.obj
 0002:00067360       __isprint_l                004ab360 f i LIBCMTD:_ctype.obj
 0002:00067410       _isprint                   004ab410 f i LIBCMTD:_ctype.obj
 0002:00067450       __isgraph_l                004ab450 f i LIBCMTD:_ctype.obj
 0002:00067500       _isgraph                   004ab500 f i LIBCMTD:_ctype.obj
 0002:00067540       __iscntrl_l                004ab540 f i LIBCMTD:_ctype.obj
 0002:000675e0       _iscntrl                   004ab5e0 f i LIBCMTD:_ctype.obj
 0002:00067620       ___isascii                 004ab620 f i LIBCMTD:_ctype.obj
 0002:00067640       ___toascii                 004ab640 f i LIBCMTD:_ctype.obj
 0002:00067650       __iscsymf_l                004ab650 f i LIBCMTD:_ctype.obj
 0002:000676a0       ___iscsymf                 004ab6a0 f i LIBCMTD:_ctype.obj
 0002:000676e0       __iscsym_l                 004ab6e0 f i LIBCMTD:_ctype.obj
 0002:00067730       ___iscsym                  004ab730 f i LIBCMTD:_ctype.obj
 0002:00067780       ___crtGetLocaleInfoW       004ab780 f   LIBCMTD:w_loc.obj
 0002:00067810       ___crtGetLocaleInfoA       004ab810 f   LIBCMTD:a_loc.obj
 0002:00067a60       __initp_misc_cfltcvt_tab   004aba60 f   LIBCMTD:cmiscdat.obj
 0002:00067ac0       __initp_misc_rand_s        004abac0 f   LIBCMTD:rand_s.obj
 0002:00067ae0       _rand_s                    004abae0 f   LIBCMTD:rand_s.obj
 0002:00067d90       __ismbbkalnum_l            004abd90 f   LIBCMTD:ismbbyte.obj
 0002:00067dc0       __ismbbkalnum              004abdc0 f   LIBCMTD:ismbbyte.obj
 0002:00067de0       __ismbbkprint_l            004abde0 f   LIBCMTD:ismbbyte.obj
 0002:00067e10       __ismbbkprint              004abe10 f   LIBCMTD:ismbbyte.obj
 0002:00067e30       __ismbbkpunct_l            004abe30 f   LIBCMTD:ismbbyte.obj
 0002:00067e60       __ismbbkpunct              004abe60 f   LIBCMTD:ismbbyte.obj
 0002:00067e80       __ismbbalnum_l             004abe80 f   LIBCMTD:ismbbyte.obj
 0002:00067eb0       __ismbbalnum               004abeb0 f   LIBCMTD:ismbbyte.obj
 0002:00067ee0       __ismbbalpha_l             004abee0 f   LIBCMTD:ismbbyte.obj
 0002:00067f10       __ismbbalpha               004abf10 f   LIBCMTD:ismbbyte.obj
 0002:00067f40       __ismbbgraph_l             004abf40 f   LIBCMTD:ismbbyte.obj
 0002:00067f70       __ismbbgraph               004abf70 f   LIBCMTD:ismbbyte.obj
 0002:00067fa0       __ismbbprint_l             004abfa0 f   LIBCMTD:ismbbyte.obj
 0002:00067fd0       __ismbbprint               004abfd0 f   LIBCMTD:ismbbyte.obj
 0002:00068000       __ismbbpunct_l             004ac000 f   LIBCMTD:ismbbyte.obj
 0002:00068030       __ismbbpunct               004ac030 f   LIBCMTD:ismbbyte.obj
 0002:00068050       __ismbblead_l              004ac050 f   LIBCMTD:ismbbyte.obj
 0002:00068080       __ismbblead                004ac080 f   LIBCMTD:ismbbyte.obj
 0002:000680a0       __ismbbtrail_l             004ac0a0 f   LIBCMTD:ismbbyte.obj
 0002:000680d0       __ismbbtrail               004ac0d0 f   LIBCMTD:ismbbyte.obj
 0002:000680f0       __ismbbkana_l              004ac0f0 f   LIBCMTD:ismbbyte.obj
 0002:00068180       __ismbbkana                004ac180 f   LIBCMTD:ismbbyte.obj
 0002:000682a0       __flsbuf                   004ac2a0 f   LIBCMTD:_flsbuf.obj
 0002:00068610       __output_l                 004ac610 f   LIBCMTD:output.obj
 0002:00069f50       _get_int_arg               004adf50 f i LIBCMTD:output.obj
 0002:00069f80       _get_int64_arg             004adf80 f i LIBCMTD:output.obj
 0002:00069fb0       _get_short_arg             004adfb0 f i LIBCMTD:output.obj
 0002:00069fe0       __vsprintf_l               004adfe0 f   LIBCMTD:vsprintf.obj
 0002:0006a1b0       _vsprintf                  004ae1b0 f   LIBCMTD:vsprintf.obj
 0002:0006a1e0       __vscprintf_helper         004ae1e0 f   LIBCMTD:vsprintf.obj
 0002:0006a2d0       __vscprintf                004ae2d0 f   LIBCMTD:vsprintf.obj
 0002:0006a300       __vscprintf_l              004ae300 f   LIBCMTD:vsprintf.obj
 0002:0006a330       __vscprintf_p              004ae330 f   LIBCMTD:vsprintf.obj
 0002:0006a360       __vscprintf_p_l            004ae360 f   LIBCMTD:vsprintf.obj
 0002:0006a390       __vsnprintf_helper         004ae390 f   LIBCMTD:vsnprnc.obj
 0002:0006a5d0       __vsnprintf_c              004ae5d0 f   LIBCMTD:vsnprnc.obj
 0002:0006a630       __vsnprintf_c_l            004ae630 f   LIBCMTD:vsnprnc.obj
 0002:0006a690       __vsprintf_s_l             004ae690 f   LIBCMTD:vsnprnc.obj
 0002:0006a990       _vsprintf_s                004ae990 f   LIBCMTD:vsnprnc.obj
 0002:0006a9c0       __vsnprintf_s_l            004ae9c0 f   LIBCMTD:vsnprnc.obj
 0002:0006ae40       __vsnprintf_s              004aee40 f   LIBCMTD:vsnprnc.obj
 0002:0006ae70       __vsprintf_p               004aee70 f   LIBCMTD:vsnprnc.obj
 0002:0006aed0       __vsprintf_p_l             004aeed0 f   LIBCMTD:vsnprnc.obj
 0002:0006af30       __mbstowcs_l_helper        004aef30 f   LIBCMTD:mbstowcs.obj
 0002:0006b360       __mbstowcs_l               004af360 f   LIBCMTD:mbstowcs.obj
 0002:0006b390       _mbstowcs                  004af390 f   LIBCMTD:mbstowcs.obj
 0002:0006b3f0       __mbstowcs_s_l             004af3f0 f   LIBCMTD:mbstowcs.obj
 0002:0006b850       _mbstowcs_s                004af850 f   LIBCMTD:mbstowcs.obj
 0002:0006b880       __itoa_s                   004af880 f   LIBCMTD:xtoas.obj
 0002:0006bd30       __ltoa_s                   004afd30 f   LIBCMTD:xtoas.obj
 0002:0006bd80       __ultoa_s                  004afd80 f   LIBCMTD:xtoas.obj
 0002:0006bdb0       __i64toa_s                 004afdb0 f   LIBCMTD:xtoas.obj
 0002:0006c2b0       __ui64toa_s                004b02b0 f   LIBCMTD:xtoas.obj
 0002:0006c2e0       __wcstombs_l_helper        004b02e0 f   LIBCMTD:wcstombs.obj
 0002:0006c910       __wcstombs_l               004b0910 f   LIBCMTD:wcstombs.obj
 0002:0006c940       _wcstombs                  004b0940 f   LIBCMTD:wcstombs.obj
 0002:0006c970       __wcstombs_s_l             004b0970 f   LIBCMTD:wcstombs.obj
 0002:0006cd60       _wcstombs_s                004b0d60 f   LIBCMTD:wcstombs.obj
 0002:0006cd90       _wcscat_s                  004b0d90 f   LIBCMTD:wcscat_s.obj
 0002:0006d270       __vswprintf_helper         004b1270 f   LIBCMTD:vswprnc.obj
 0002:0006d530       __vswprintf_c              004b1530 f   LIBCMTD:vswprnc.obj
 0002:0006d590       __vswprintf_c_l            004b1590 f   LIBCMTD:vswprnc.obj
 0002:0006d5f0       __vswprintf_s_l            004b15f0 f   LIBCMTD:vswprnc.obj
 0002:0006d8f0       _vswprintf_s               004b18f0 f   LIBCMTD:vswprnc.obj
 0002:0006d920       __vsnwprintf_s_l           004b1920 f   LIBCMTD:vswprnc.obj
 0002:0006ddc0       __vsnwprintf_s             004b1dc0 f   LIBCMTD:vswprnc.obj
 0002:0006ddf0       __vswprintf_p              004b1df0 f   LIBCMTD:vswprnc.obj
 0002:0006de50       __vswprintf_p_l            004b1e50 f   LIBCMTD:vswprnc.obj
 0002:0006deb0       __itow_s                   004b1eb0 f   LIBCMTD:xtows.obj
 0002:0006e380       __ltow_s                   004b2380 f   LIBCMTD:xtows.obj
 0002:0006e3d0       __ultow_s                  004b23d0 f   LIBCMTD:xtows.obj
 0002:0006e400       __i64tow_s                 004b2400 f   LIBCMTD:xtows.obj
 0002:0006e920       __ui64tow_s                004b2920 f   LIBCMTD:xtows.obj
 0002:0006e950       __woutput_l                004b2950 f   LIBCMTD:woutput.obj
 0002:0006ffb0       __vswprintf_l              004b3fb0 f   LIBCMTD:vswprint.obj
 0002:000701f0       __vswprintf                004b41f0 f   LIBCMTD:vswprint.obj
 0002:00070220       ___vswprintf_l             004b4220 f   LIBCMTD:vswprint.obj
 0002:00070250       __vscwprintf_helper        004b4250 f   LIBCMTD:vswprint.obj
 0002:00070340       __vscwprintf               004b4340 f   LIBCMTD:vswprint.obj
 0002:00070370       __vscwprintf_l             004b4370 f   LIBCMTD:vswprint.obj
 0002:000703a0       __vscwprintf_p             004b43a0 f   LIBCMTD:vswprint.obj
 0002:000703d0       __vscwprintf_p_l           004b43d0 f   LIBCMTD:vswprint.obj
 0002:00070400       __get_daylight             004b4400 f   LIBCMTD:timeset.obj
 0002:000704a0       __get_dstbias              004b44a0 f   LIBCMTD:timeset.obj
 0002:00070540       __get_timezone             004b4540 f   LIBCMTD:timeset.obj
 0002:000705e0       __get_tzname               004b45e0 f   LIBCMTD:timeset.obj
 0002:00070830       ___daylight                004b4830 f   LIBCMTD:timeset.obj
 0002:00070840       ___dstbias                 004b4840 f   LIBCMTD:timeset.obj
 0002:00070850       ___timezone                004b4850 f   LIBCMTD:timeset.obj
 0002:00070860       ___tzname                  004b4860 f   LIBCMTD:timeset.obj
 0002:00070870       ___tzset                   004b4870 f   LIBCMTD:tzset.obj
 0002:00070930       __tzset                    004b4930 f   LIBCMTD:tzset.obj
 0002:00071040       __set_daylight             004b5040 f i LIBCMTD:tzset.obj
 0002:00071060       __set_dstbias              004b5060 f i LIBCMTD:tzset.obj
 0002:00071080       __set_timezone             004b5080 f i LIBCMTD:tzset.obj
 0002:000710a0       __isindst                  004b50a0 f   LIBCMTD:tzset.obj
 0002:000718f0       __stricmp_l                004b58f0 f   LIBCMTD:stricmp.obj
 0002:00071b00       ___ascii_stricmp           004b5b00 f   LIBCMTD:stricmp.obj
 0002:00071b90       __stricmp                  004b5b90 f   LIBCMTD:stricmp.obj
 0002:00071b90       _stricmp                   004b5b90 f   LIBCMTD:stricmp.obj
 0002:00071ce0       __strnicmp_l               004b5ce0 f   LIBCMTD:strnicmp.obj
 0002:00071fb0       __strnicmp                 004b5fb0 f   LIBCMTD:strnicmp.obj
 0002:000721a0       ___crtGetStringTypeW       004b61a0 f   LIBCMTD:w_str.obj
 0002:00072240       __fptrap                   004b6240 f   LIBCMTD:crt0fp.obj
 0002:00072260       __lseeki64                 004b6260 f   LIBCMTD:lseeki64.obj
 0002:00072540       __lseeki64_nolock          004b6540 f   LIBCMTD:lseeki64.obj
 0002:00072670       __write                    004b6670 f   LIBCMTD:write.obj
 0002:00072920       __write_nolock             004b6920 f   LIBCMTD:write.obj
 0002:00073730       __getbuf                   004b7730 f   LIBCMTD:_getbuf.obj
 0002:00073820       __isatty                   004b7820 f   LIBCMTD:isatty.obj
 0002:00073940       ___iob_func                004b7940 f   LIBCMTD:_file.obj
 0002:00073950       ___initstdio               004b7950 f   LIBCMTD:_file.obj
 0002:00073af0       ___endstdio                004b7af0 f   LIBCMTD:_file.obj
 0002:00073b30       __lock_file                004b7b30 f   LIBCMTD:_file.obj
 0002:00073ba0       __lock_file2               004b7ba0 f   LIBCMTD:_file.obj
 0002:00073bf0       __unlock_file              004b7bf0 f   LIBCMTD:_file.obj
 0002:00073c60       __unlock_file2             004b7c60 f   LIBCMTD:_file.obj
 0002:00073cb0       __fileno                   004b7cb0 f   LIBCMTD:fileno.obj
 0002:00073d40       _printf                    004b7d40 f   LIBCMTD:printf.obj
 0002:00073ed0       __printf_l                 004b7ed0 f   LIBCMTD:printf.obj
 0002:00073f00       __printf_s_l               004b7f00 f   LIBCMTD:printf.obj
 0002:00073f30       _printf_s                  004b7f30 f   LIBCMTD:printf.obj
 0002:00073f60       __printf_p_l               004b7f60 f   LIBCMTD:printf.obj
 0002:00073f90       __printf_p                 004b7f90 f   LIBCMTD:printf.obj
 0002:00073fc0       __set_printf_count_output  004b7fc0 f   LIBCMTD:printf.obj
 0002:00074020       __get_printf_count_output  004b8020 f   LIBCMTD:printf.obj
 0002:00074050       __wctomb_s_l               004b8050 f   LIBCMTD:wctomb.obj
 0002:00074410       _wctomb_s                  004b8410 f   LIBCMTD:wctomb.obj
 0002:00074440       __wctomb_l                 004b8440 f   LIBCMTD:wctomb.obj
 0002:000744e0       _wctomb                    004b84e0 f   LIBCMTD:wctomb.obj
 0002:00074540       __validate_param_reuseA    004b8540 f   LIBCMTD:outputp.obj
 0002:00074850       __output_p_l               004b8850 f   LIBCMTD:outputp.obj
 0002:00079310       _get_crtdouble_arg         004bd310 f i LIBCMTD:outputp.obj
 0002:00079340       __output_s_l               004bd340 f   LIBCMTD:outputs.obj
 0002:0007ae30       __woutput_s_l              004bee30 f   LIBCMTD:woutputs.obj
 0002:0007c640       __validate_param_reuseW    004c0640 f   LIBCMTD:woutputp.obj
 0002:0007c950       __woutput_p_l              004c0950 f   LIBCMTD:woutputp.obj
 0002:00080ea0       __mbtowc_l                 004c4ea0 f   LIBCMTD:mbtowc.obj
 0002:00081140       _mbtowc                    004c5140 f   LIBCMTD:mbtowc.obj
 0002:00081170       _fputwc                    004c5170 f   LIBCMTD:fputwc.obj
 0002:000812b0       __fputwc_nolock            004c52b0 f   LIBCMTD:fputwc.obj
 0002:00081650       _putwc                     004c5650 f   LIBCMTD:fputwc.obj
 0002:00081670       _getenv                    004c5670 f   LIBCMTD:getenv.obj
 0002:00081820       __getenv_helper_nolock     004c5820 f   LIBCMTD:getenv.obj
 0002:00081980       _getenv_s                  004c5980 f   LIBCMTD:getenv.obj
 0002:00081c30       __dupenv_s                 004c5c30 f   LIBCMTD:getenv.obj
 0002:00081c60       __dupenv_s_dbg             004c5c60 f   LIBCMTD:getenv.obj
 0002:00081f40       __tolower                  004c5f40 f   LIBCMTD:tolower.obj
 0002:00081f50       __tolower_l                004c5f50 f   LIBCMTD:tolower.obj
 0002:000821a0       _tolower                   004c61a0 f   LIBCMTD:tolower.obj
 0002:00082200       ___ascii_strnicmp          004c6200 f   LIBCMTD:_strnicm.obj
 0002:00082280       __alloc_osfhnd             004c6280 f   LIBCMTD:osfinfo.obj
 0002:000825e0       __set_osfhnd               004c65e0 f   LIBCMTD:osfinfo.obj
 0002:000826e0       __free_osfhnd              004c66e0 f   LIBCMTD:osfinfo.obj
 0002:00082800       __get_osfhandle            004c6800 f   LIBCMTD:osfinfo.obj
 0002:000829c0       __open_osfhandle           004c69c0 f   LIBCMTD:osfinfo.obj
 0002:00082c80       ___lock_fhandle            004c6c80 f   LIBCMTD:osfinfo.obj
 0002:00082dc0       __unlock_fhandle           004c6dc0 f   LIBCMTD:osfinfo.obj
 0002:00082e00       __putwch                   004c6e00 f   LIBCMTD:putwch.obj
 0002:00082eb0       __putwch_nolock            004c6eb0 f   LIBCMTD:putwch.obj
 0002:00082ff0       __cputws                   004c6ff0 f   LIBCMTD:putwch.obj
 0002:00083190       _DebuggerKnownHandle       004c7190 f   LIBCMTD:_error_.obj
 0002:00083270       ?_RTC_Failure@@YAXPAXH@Z   004c7270 f   LIBCMTD:_error_.obj
 0002:00083640       ?_RTC_StackFailure@@YAXPAXPBD@Z 004c7640 f   LIBCMTD:_error_.obj
 0002:00083780       ?_RTC_AllocaFailure@@YAXPAXPAU_RTC_ALLOCA_NODE@@H@Z 004c7780 f   LIBCMTD:_error_.obj
 0002:00083990       __RTC_UninitUse            004c7990 f   LIBCMTD:_error_.obj
 0002:00083ac0       __fcloseall                004c7ac0 f   LIBCMTD:closeall.obj
 0002:00083c40       _fflush                    004c7c40 f   LIBCMTD:fflush.obj
 0002:00083d00       __fflush_nolock            004c7d00 f   LIBCMTD:fflush.obj
 0002:00083d70       __flush                    004c7d70 f   LIBCMTD:fflush.obj
 0002:00083e60       __flushall                 004c7e60 f   LIBCMTD:fflush.obj
 0002:00084090       __stbuf                    004c8090 f   LIBCMTD:_sftbuf.obj
 0002:00084240       __ftbuf                    004c8240 f   LIBCMTD:_sftbuf.obj
 0002:000842f0       _vprintf_helper            004c82f0 f   LIBCMTD:vprintf.obj
 0002:00084450       __vprintf_l                004c8450 f   LIBCMTD:vprintf.obj
 0002:00084480       __vprintf_s_l              004c8480 f   LIBCMTD:vprintf.obj
 0002:000844b0       __vprintf_p_l              004c84b0 f   LIBCMTD:vprintf.obj
 0002:000844e0       _vprintf                   004c84e0 f   LIBCMTD:vprintf.obj
 0002:00084510       _vprintf_s                 004c8510 f   LIBCMTD:vprintf.obj
 0002:00084540       __vprintf_p                004c8540 f   LIBCMTD:vprintf.obj
 0002:00084570       _wcstol                    004c8570 f   LIBCMTD:wcstol.obj
 0002:00084b10       __wcstol_l                 004c8b10 f   LIBCMTD:wcstol.obj
 0002:00084b40       _wcstoul                   004c8b40 f   LIBCMTD:wcstol.obj
 0002:00084ba0       __wcstoul_l                004c8ba0 f   LIBCMTD:wcstol.obj
 0002:00084bd0       __flswbuf                  004c8bd0 f   LIBCMTD:_flswbuf.obj
 0002:00084f60       _strnlen                   004c8f60 f   LIBCMTD:strlen_s.obj
 0002:00084fb0       __mbsnbicoll_l             004c8fb0 f   LIBCMTD:mbsnbico.obj
 0002:00085280       __mbsnbicoll               004c9280 f   LIBCMTD:mbsnbico.obj
 0002:000852b0       ___wtomb_environ           004c92b0 f   LIBCMTD:wtombenv.obj
 0002:000853e0       ___initconin               004c93e0 f   LIBCMTD:initcon.obj
 0002:00085410       ___initconout              004c9410 f   LIBCMTD:initcon.obj
 0002:00085440       ___termcon                 004c9440 f   LIBCMTD:initcon.obj
 0002:000854a0       ?_RTC_GetSrcLine@@YAHPAEPA_WKPAH1K@Z 004c94a0 f   LIBCMTD:_pdblkup_.obj
 0002:00085a60       __RTC_NumErrors            004c9a60 f   LIBCMTD:_userapi_.obj
 0002:00085a70       __RTC_GetErrDesc           004c9a70 f   LIBCMTD:_userapi_.obj
 0002:00085a90       __RTC_SetErrorType         004c9a90 f   LIBCMTD:_userapi_.obj
 0002:00085ac0       __RTC_SetErrorFunc         004c9ac0 f   LIBCMTD:_userapi_.obj
 0002:00085af0       __RTC_SetErrorFuncW        004c9af0 f   LIBCMTD:_userapi_.obj
 0002:00085b20       ?_RTC_GetErrorFunc@@YAP6AHHPBDH00ZZPBX@Z 004c9b20 f   LIBCMTD:_userapi_.obj
 0002:00085b30       ?_RTC_GetErrorFuncW@@YAP6AHHPB_WH00ZZPBX@Z 004c9b30 f   LIBCMTD:_userapi_.obj
 0002:00085b40       _fclose                    004c9b40 f   LIBCMTD:fclose.obj
 0002:00085c90       __fclose_nolock            004c9c90 f   LIBCMTD:fclose.obj
 0002:00085dd0       __commit                   004c9dd0 f   LIBCMTD:commit.obj
 0002:00086070       __wchartodigit             004ca070 f   LIBCMTD:wchtodig.obj
 0002:00086460       ___crtCompareStringA       004ca460 f   LIBCMTD:a_cmp.obj
 0002:00086b80       __strnicoll_l              004cab80 f   LIBCMTD:strnicol.obj
 0002:00086e60       __strnicoll                004cae60 f   LIBCMTD:strnicol.obj
 0002:00086eb0       ___crtsetenv               004caeb0 f   LIBCMTD:setenv.obj
 0002:000876d0       __close                    004cb6d0 f   LIBCMTD:close.obj
 0002:00087970       __close_nolock             004cb970 f   LIBCMTD:close.obj
 0002:00087a70       __freebuf                  004cba70 f   LIBCMTD:_freebuf.obj
 0002:00087b20       __mbschr_l                 004cbb20 f   LIBCMTD:mbschr.obj
 0002:00087d10       __mbschr                   004cbd10 f   LIBCMTD:mbschr.obj
 0002:00087d30       _RtlUnwind@16              004cbd30 f   kernel32:KERNEL32.dll
 0002:00087d36       _GetCommandLineA@0         004cbd36 f   kernel32:KERNEL32.dll
 0002:00087d3c       _GetStartupInfoA@4         004cbd3c f   kernel32:KERNEL32.dll
 0002:00087d42       _RaiseException@16         004cbd42 f   kernel32:KERNEL32.dll
 0002:00087d48       _DeleteCriticalSection@4   004cbd48 f   kernel32:KERNEL32.dll
 0002:00087d4e       _EnterCriticalSection@4    004cbd4e f   kernel32:KERNEL32.dll
 0002:00087d54       _LeaveCriticalSection@4    004cbd54 f   kernel32:KERNEL32.dll
 0002:00087d5a       _FatalAppExitA@8           004cbd5a f   kernel32:KERNEL32.dll
 0002:00087d60       _HeapValidate@12           004cbd60 f   kernel32:KERNEL32.dll
 0002:00087d66       _GetModuleFileNameW@12     004cbd66 f   kernel32:KERNEL32.dll
 0002:00087d6c       _TlsGetValue@4             004cbd6c f   kernel32:KERNEL32.dll
 0002:00087d72       _GetModuleHandleW@4        004cbd72 f   kernel32:KERNEL32.dll
 0002:00087d78       _TlsAlloc@0                004cbd78 f   kernel32:KERNEL32.dll
 0002:00087d7e       _TlsSetValue@8             004cbd7e f   kernel32:KERNEL32.dll
 0002:00087d84       _GetCurrentThreadId@0      004cbd84 f   kernel32:KERNEL32.dll
 0002:00087d8a       _TlsFree@4                 004cbd8a f   kernel32:KERNEL32.dll
 0002:00087d90       _InterlockedIncrement@4    004cbd90 f   kernel32:KERNEL32.dll
 0002:00087d96       _SetLastError@4            004cbd96 f   kernel32:KERNEL32.dll
 0002:00087d9c       _InterlockedDecrement@4    004cbd9c f   kernel32:KERNEL32.dll
 0002:00087da2       _GetCurrentThread@0        004cbda2 f   kernel32:KERNEL32.dll
 0002:00087da8       _TerminateProcess@8        004cbda8 f   kernel32:KERNEL32.dll
 0002:00087dae       _GetCurrentProcess@0       004cbdae f   kernel32:KERNEL32.dll
 0002:00087db4       _UnhandledExceptionFilter@4 004cbdb4 f   kernel32:KERNEL32.dll
 0002:00087dba       _SetUnhandledExceptionFilter@4 004cbdba f   kernel32:KERNEL32.dll
 0002:00087dc0       _IsDebuggerPresent@0       004cbdc0 f   kernel32:KERNEL32.dll
 0002:00087dc6       _GetACP@0                  004cbdc6 f   kernel32:KERNEL32.dll
 0002:00087dcc       _GetOEMCP@0                004cbdcc f   kernel32:KERNEL32.dll
 0002:00087dd2       _GetCPInfo@8               004cbdd2 f   kernel32:KERNEL32.dll
 0002:00087dd8       _IsValidCodePage@4         004cbdd8 f   kernel32:KERNEL32.dll
 0002:00087dde       _WideCharToMultiByte@32    004cbdde f   kernel32:KERNEL32.dll
 0002:00087de4       _MultiByteToWideChar@24    004cbde4 f   kernel32:KERNEL32.dll
 0002:00087dea       _LCMapStringA@24           004cbdea f   kernel32:KERNEL32.dll
 0002:00087df0       _LCMapStringW@24           004cbdf0 f   kernel32:KERNEL32.dll
 0002:00087df6       _GetModuleFileNameA@12     004cbdf6 f   kernel32:KERNEL32.dll
 0002:00087dfc       _GetStdHandle@4            004cbdfc f   kernel32:KERNEL32.dll
 0002:00087e02       _QueryPerformanceCounter@4 004cbe02 f   kernel32:KERNEL32.dll
 0002:00087e08       _GetCurrentProcessId@0     004cbe08 f   kernel32:KERNEL32.dll
 0002:00087e0e       _GetSystemTimeAsFileTime@4 004cbe0e f   kernel32:KERNEL32.dll
 0002:00087e14       _FreeEnvironmentStringsA@4 004cbe14 f   kernel32:KERNEL32.dll
 0002:00087e1a       _GetEnvironmentStrings@0   004cbe1a f   kernel32:KERNEL32.dll
 0002:00087e20       _FreeEnvironmentStringsW@4 004cbe20 f   kernel32:KERNEL32.dll
 0002:00087e26       _GetEnvironmentStringsW@0  004cbe26 f   kernel32:KERNEL32.dll
 0002:00087e2c       _SetHandleCount@4          004cbe2c f   kernel32:KERNEL32.dll
 0002:00087e32       _GetFileType@4             004cbe32 f   kernel32:KERNEL32.dll
 0002:00087e38       _HeapDestroy@4             004cbe38 f   kernel32:KERNEL32.dll
 0002:00087e3e       _HeapCreate@12             004cbe3e f   kernel32:KERNEL32.dll
 0002:00087e44       _HeapFree@12               004cbe44 f   kernel32:KERNEL32.dll
 0002:00087e4a       _VirtualFree@12            004cbe4a f   kernel32:KERNEL32.dll
 0002:00087e50       _InitializeCriticalSectionAndSpinCount@8 004cbe50 f   kernel32:KERNEL32.dll
 0002:00087e56       _HeapAlloc@12              004cbe56 f   kernel32:KERNEL32.dll
 0002:00087e5c       _HeapSize@12               004cbe5c f   kernel32:KERNEL32.dll
 0002:00087e62       _HeapReAlloc@16            004cbe62 f   kernel32:KERNEL32.dll
 0002:00087e68       _VirtualAlloc@16           004cbe68 f   kernel32:KERNEL32.dll
 0002:00087e6e       _DebugBreak@0              004cbe6e f   kernel32:KERNEL32.dll
 0002:00087e74       _OutputDebugStringA@4      004cbe74 f   kernel32:KERNEL32.dll
 0002:00087e7a       _WriteConsoleW@20          004cbe7a f   kernel32:KERNEL32.dll
 0002:00087e80       _OutputDebugStringW@4      004cbe80 f   kernel32:KERNEL32.dll
 0002:00087e86       _SetConsoleCtrlHandler@8   004cbe86 f   kernel32:KERNEL32.dll
 0002:00087e8c       _LoadLibraryW@4            004cbe8c f   kernel32:KERNEL32.dll
 0002:00087e92       _GetTimeFormatA@24         004cbe92 f   kernel32:KERNEL32.dll
 0002:00087e98       _GetDateFormatA@24         004cbe98 f   kernel32:KERNEL32.dll
 0002:00087e9e       _GetStringTypeA@20         004cbe9e f   kernel32:KERNEL32.dll
 0002:00087ea4       _GetStringTypeW@16         004cbea4 f   kernel32:KERNEL32.dll
 0002:00087eaa       _GetLocaleInfoA@16         004cbeaa f   kernel32:KERNEL32.dll
 0002:00087eb0       _IsValidLocale@8           004cbeb0 f   kernel32:KERNEL32.dll
 0002:00087eb6       _EnumSystemLocalesA@8      004cbeb6 f   kernel32:KERNEL32.dll
 0002:00087ebc       _GetUserDefaultLCID@0      004cbebc f   kernel32:KERNEL32.dll
 0002:00087ec2       _GetLocaleInfoW@16         004cbec2 f   kernel32:KERNEL32.dll
 0002:00087ec8       _InterlockedExchange@8     004cbec8 f   kernel32:KERNEL32.dll
 0002:00087ece       _GetTimeZoneInformation@4  004cbece f   kernel32:KERNEL32.dll
 0002:00087ed4       _GetConsoleCP@0            004cbed4 f   kernel32:KERNEL32.dll
 0002:00087eda       _GetConsoleMode@8          004cbeda f   kernel32:KERNEL32.dll
 0002:00087ee0       _SetStdHandle@8            004cbee0 f   kernel32:KERNEL32.dll
 0002:00087ee6       _WriteConsoleA@20          004cbee6 f   kernel32:KERNEL32.dll
 0002:00087eec       _GetConsoleOutputCP@0      004cbeec f   kernel32:KERNEL32.dll
 0002:00087ef2       _lstrlenA@4                004cbef2 f   kernel32:KERNEL32.dll
 0002:00087ef8       _GetProcessHeap@0          004cbef8 f   kernel32:KERNEL32.dll
 0002:00087efe       _VirtualQuery@12           004cbefe f   kernel32:KERNEL32.dll
 0002:00087f04       _FlushFileBuffers@4        004cbf04 f   kernel32:KERNEL32.dll
 0002:00087f0a       _CompareStringA@24         004cbf0a f   kernel32:KERNEL32.dll
 0002:00087f10       _CompareStringW@24         004cbf10 f   kernel32:KERNEL32.dll
 0002:00087f16       _SetEnvironmentVariableA@8 004cbf16 f   kernel32:KERNEL32.dll
 0002:00087f20       __strdup                   004cbf20 f   LIBCMTD:strdup.obj
 0002:00087f20       _strdup                    004cbf20 f   LIBCMTD:strdup.obj
 0002:00087f40       __strdup_dbg               004cbf40 f   LIBCMTD:strdup.obj
 0003:00000000       ___xc_a                    004d0000     LIBCMTD:crt0init.obj
 0003:00000104       ___xc_z                    004d0104     LIBCMTD:crt0init.obj
 0003:00000208       ___xi_a                    004d0208     LIBCMTD:crt0init.obj
 0003:00000524       ___xi_z                    004d0524     LIBCMTD:crt0init.obj
 0003:00000628       ___xp_a                    004d0628     LIBCMTD:crt0init.obj
 0003:0000093c       ___xp_z                    004d093c     LIBCMTD:crt0init.obj
 0003:00000a40       ___xt_a                    004d0a40     LIBCMTD:crt0init.obj
 0003:00000b44       ___xt_z                    004d0b44     LIBCMTD:crt0init.obj
 0003:00000c6c       ??_C@_06ENCPCEJG@priest?$AA@ 004d0c6c     cfg.obj
 0003:00000c74       ??_C@_03NPMKJMHI@Edo?$AA@  004d0c74     cfg.obj
 0003:00000c78       ??_C@_04KLFPBEKK@home?$AA@ 004d0c78     cfg.obj
 0003:00000c80       ??_C@_03KEJHNBPP@out?$AA@  004d0c80     cfg.obj
 0003:00000c84       ??_C@_07ENIHHLEG@visitor?$AA@ 004d0c84     cfg.obj
 0003:00000c90       ??_C@_07HCANINJL@meeting?$AA@ 004d0c90     cfg.obj
 0003:00000c9c       ??_C@_04NENKDJJD@meal?$AA@ 004d0c9c     cfg.obj
 0003:00000ca4       ??_C@_07MPDDDAIG@absence?$AA@ 004d0ca4     cfg.obj
 0003:00000cb0       ??_C@_0DD@NAIMENDD@I?5am?5tired?5of?5life?4?$AN?6Please?5don?8@ 004d0cb0     cfg.obj
 0003:00000cf0       ??_C@_0CA@KIFHLPCP@Edo?5tokorobarai?5mousi?5watasu?$CB?$AN?6?$AA@ 004d0cf0     cfg.obj
 0003:00000d18       ??_C@_0M@HJMAHNNJ@home?5now?4?$AN?6?$AA@ 004d0d18     cfg.obj
 0003:00000d28       ??_C@_0L@MIAOIHIC@out?5now?4?$AN?6?$AA@ 004d0d28     cfg.obj
 0003:00000d38       ??_C@_0BA@EJBAHPFJ@visitors?5now?4?$AN?6?$AA@ 004d0d38     cfg.obj
 0003:00000d4c       ??_C@_0BE@BKEHKICF@in?5a?5meeting?5now?4?$AN?6?$AA@ 004d0d4c     cfg.obj
 0003:00000d64       ??_C@_0BF@KFPABGLO@having?5a?5meal?5now?4?$AN?6?$AA@ 004d0d64     cfg.obj
 0003:00000d80       ??_C@_0P@FGGJDAJ@absence?5now?4?$AN?6?$AA@ 004d0d80     cfg.obj
 0003:00000d94       ??_C@_06KENCDLMH@TELNET?$AA@ 004d0d94     cfg.obj
 0003:00000d9c       ??_C@_04PMPMHNFI@FILE?$AA@ 004d0d9c     cfg.obj
 0003:00000da4       ??_C@_03LBMKPMDK@FTP?$AA@  004d0da4     cfg.obj
 0003:00000da8       ??_C@_05NJOAAHIE@HTTPS?$AA@ 004d0da8     cfg.obj
 0003:00000db0       ??_C@_04MEDPFIKH@HTTP?$AA@ 004d0db0     cfg.obj
 0003:00000db8       ??_C@_0DJ@ENAAAFPI@?$EA?$CI?$CD?$CJCopyright?5?$CIC?$CJ?5H?4Shirouzu?5199@ 004d0db8     cfg.obj
 0003:00000e00       ??_7TBroadcastList@@6B@    004d0e00     cfg.obj
 0003:00000e10       ??_C@_0BA@FLKBIJNF@PrivEncryptType?$AA@ 004d0e10     cfg.obj
 0003:00000e24       ??_C@_0BA@PALIONDI@PrivEncryptSeed?$AA@ 004d0e24     cfg.obj
 0003:00000e38       ??_C@_08BAHBNIK@PrivBlob?$AA@ 004d0e38     cfg.obj
 0003:00000e44       ??_C@_05ENHGKOIF@Crypt?$AA@ 004d0e44     cfg.obj
 0003:00000e4c       ??_C@_0L@OFDALGKC@UpdateTime?$AA@ 004d0e4c     cfg.obj
 0003:00000e5c       ??_C@_09DOCDJBIG@GroupName?$AA@ 004d0e5c     cfg.obj
 0003:00000e68       ??_C@_08CELDJAGK@NickName?$AA@ 004d0e68     cfg.obj
 0003:00000e74       ??_C@_06EHMKCHHP@PortNo?$AA@ 004d0e74     cfg.obj
 0003:00000e7c       ??_C@_06DMIOHBPJ@IPAddr?$AA@ 004d0e7c     cfg.obj
 0003:00000e84       ??_C@_08EJIMMOH@HostName?$AA@ 004d0e84     cfg.obj
 0003:00000e90       ??_C@_08KAFEAHEM@UserName?$AA@ 004d0e90     cfg.obj
 0003:00000e9c       ??_C@_08BIGBAHMK@HostInfo?$AA@ 004d0e9c     cfg.obj
 0003:00000ea8       ??_C@_0P@NJDDFHMG@PriorityReject?$AA@ 004d0ea8     cfg.obj
 0003:00000ebc       ??_C@_0M@ODJAGJNK@PriorityMax?$AA@ 004d0ebc     cfg.obj
 0003:00000ecc       ??_C@_08KGEIBGG@Priority?$AA@ 004d0ecc     cfg.obj
 0003:00000ed8       ??_C@_0N@FOIJMANG@ClickableUrl?$AA@ 004d0ed8     cfg.obj
 0003:00000ee8       ??_C@_09GOCNMLEJ@BroadCast?$AA@ 004d0ee8     cfg.obj
 0003:00000ef4       ??_C@_08JCHOGPOK@RecvEdit?$AA@ 004d0ef4     cfg.obj
 0003:00000f00       ??_C@_08JGIDIPNH@RecvHead?$AA@ 004d0f00     cfg.obj
 0003:00000f0c       ??_C@_0N@ELLKEKBE@SendListView?$AA@ 004d0f0c     cfg.obj
 0003:00000f1c       ??_C@_08KKMMLJPJ@SendEdit?$AA@ 004d0f1c     cfg.obj
 0003:00000f28       ??_C@_05ENDNDI@Fonts?$AA@  004d0f28     cfg.obj
 0003:00000f30       ??_C@_08KDNJDPNE@RecvYpos?$AA@ 004d0f30     cfg.obj
 0003:00000f3c       ??_C@_08JOLJBGGE@RecvXpos?$AA@ 004d0f3c     cfg.obj
 0003:00000f48       ??_C@_0M@DKNFMOEK@RecvSavePos?$AA@ 004d0f48     cfg.obj
 0003:00000f58       ??_C@_09BIFMAMNG@RecvYdiff?$AA@ 004d0f58     cfg.obj
 0003:00000f64       ??_C@_09NDAANPHD@RecvXdiff?$AA@ 004d0f64     cfg.obj
 0003:00000f70       ??_C@_08JLGLOJMH@SendYpos?$AA@ 004d0f70     cfg.obj
 0003:00000f7c       ??_C@_08KGALMAHH@SendXpos?$AA@ 004d0f7c     cfg.obj
 0003:00000f88       ??_C@_0M@NGLIGDGC@SendSavePos?$AA@ 004d0f88     cfg.obj
 0003:00000f98       ??_C@_0N@MPPEJMFA@SendMidYdiff?$AA@ 004d0f98     cfg.obj
 0003:00000fa8       ??_C@_09JMNKPPNO@SendYdiff?$AA@ 004d0fa8     cfg.obj
 0003:00000fb4       ??_C@_09FHIGCMHL@SendXdiff?$AA@ 004d0fb4     cfg.obj
 0003:00000fc0       ??_C@_09HIHHMNKL@SendOrder?$AA@ 004d0fc0     cfg.obj
 0003:00000fcc       ??_C@_0L@NMPHJPAN@SendIPAddr?$AA@ 004d0fcc     cfg.obj
 0003:00000fdc       ??_C@_0N@DDPKMHFI@SendHostName?$AA@ 004d0fdc     cfg.obj
 0003:00000fec       ??_C@_0O@GFMKFNJA@SendGroupName?$AA@ 004d0fec     cfg.obj
 0003:00000ffc       ??_C@_0N@DNAGIKNJ@SendPriority?$AA@ 004d0ffc     cfg.obj
 0003:0000100c       ??_C@_0M@IMHFBNDL@SendAbsence?$AA@ 004d100c     cfg.obj
 0003:0000101c       ??_C@_0N@JHDGAMPD@SendUserName?$AA@ 004d101c     cfg.obj
 0003:0000102c       ??_C@_0N@BDNBJLNF@SendNickName?$AA@ 004d102c     cfg.obj
 0003:0000103c       ??_C@_0L@DLKHCDPK@WindowSize?$AA@ 004d103c     cfg.obj
 0003:0000104c       ??_C@_08EGAMBCNI@lastSave?$AA@ 004d104c     cfg.obj
 0003:00001058       ??_C@_08PGCNJMED@lastOpen?$AA@ 004d1058     cfg.obj
 0003:00001064       ??_C@_07ENKOPBFC@RevIcon?$AA@ 004d1064     cfg.obj
 0003:00001070       ??_C@_04PNFIKAAD@Icon?$AA@ 004d1070     cfg.obj
 0003:00001078       ??_C@_09KJAKLJHB@SoundFile?$AA@ 004d1078     cfg.obj
 0003:00001084       ??_C@_07EEDKEMBM@LogFile?$AA@ 004d1084     cfg.obj
 0003:00001090       ??_C@_08IGGEFPFE@LogCheck?$AA@ 004d1090     cfg.obj
 0003:0000109c       ??_C@_0L@KCOFAHB@HotKeyMisc?$AA@ 004d109c     cfg.obj
 0003:000010ac       ??_C@_0L@IJNLKKPO@HotKeyRecv?$AA@ 004d10ac     cfg.obj
 0003:000010bc       ??_C@_0L@MEJHGAMO@HotKeySend?$AA@ 004d10bc     cfg.obj
 0003:000010cc       ??_C@_0N@IEMMCOKL@HotKeyModify?$AA@ 004d10cc     cfg.obj
 0003:000010dc       ??_C@_0M@NDBJJNBF@HotKeyCheck?$AA@ 004d10dc     cfg.obj
 0003:000010ec       ??_C@_06BMHDPEFH@HotKey?$AA@ 004d10ec     cfg.obj
 0003:000010f4       ??_C@_08LDLJNBMC@QuoteStr?$AA@ 004d10f4     cfg.obj
 0003:00001100       ??_C@_0M@INJDLGAE@ColumnItems?$AA@ 004d1100     cfg.obj
 0003:00001110       ??_C@_08CIOEAABI@GlidLine?$AA@ 004d1110     cfg.obj
 0003:0000111c       ??_C@_0L@IKECPPPJ@ControlIME?$AA@ 004d111c     cfg.obj
 0003:0000112c       ??_C@_0M@PIHGKAJ@ExtendEntry?$AA@ 004d112c     cfg.obj
 0003:0000113c       ??_C@_09DMJCKAPE@ShellExec?$AA@ 004d113c     cfg.obj
 0003:00001148       ??_C@_0L@FJMFKCOG@DefaultUrl?$AA@ 004d1148     cfg.obj
 0003:00001158       ??_C@_0M@MHGOLIO@MsgMinimize?$AA@ 004d1158     cfg.obj
 0003:00001168       ??_C@_0N@DPHOLDPF@KeepHostTime?$AA@ 004d1168     cfg.obj
 0003:00001178       ??_C@_04DJANFKGA@Sort?$AA@ 004d1178     cfg.obj
 0003:00001180       ??_C@_04EPLBDGIG@Lang?$AA@ 004d1180     cfg.obj
 0003:00001188       ??_C@_0N@LIMMNGJB@GroupNameStr?$AA@ 004d1188     cfg.obj
 0003:00001198       ??_C@_0M@PBCAFNEK@NickNameStr?$AA@ 004d1198     cfg.obj
 0003:000011a8       ??_C@_0BA@GGHJOPL@AbsenceNonPopup?$AA@ 004d11a8     cfg.obj
 0003:000011bc       ??_C@_0O@LINMKLMN@NickNameCheck?$AA@ 004d11bc     cfg.obj
 0003:000011cc       ??_C@_0M@JOEKJLP@DialUpCheck?$AA@ 004d11cc     cfg.obj
 0003:000011dc       ??_C@_0P@OMGDFKN@AbnormalButton?$AA@ 004d11dc     cfg.obj
 0003:000011f0       ??_C@_0O@NPDPIANL@OneClickPopup?$AA@ 004d11f0     cfg.obj
 0003:00001200       ??_C@_0M@OOBBDOMK@IPAddrCheck?$AA@ 004d1200     cfg.obj
 0003:00001210       ??_C@_0M@GKALABLL@SecretCheck?$AA@ 004d1210     cfg.obj
 0003:00001220       ??_C@_0L@KPIIDEBM@QuoteCheck?$AA@ 004d1220     cfg.obj
 0003:00001230       ??_C@_09MIEAEMAH@DelayTime?$AA@ 004d1230     cfg.obj
 0003:0000123c       ??_C@_0P@HDAKGCEE@PasswdLogCheck?$AA@ 004d123c     cfg.obj
 0003:00001250       ??_C@_0M@JLCBEJJJ@PasswordStr?$AA@ 004d1250     cfg.obj
 0003:00001260       ??_C@_02DPKJAMEF@?$CFd?$AA@ 004d1260     cfg.obj
 0003:00001264       ??_C@_07JOGAHENK@FindAll?$AA@ 004d1264     cfg.obj
 0003:00001270       ??_C@_08KHFNDBLP@FindMax2?$AA@ 004d1270     cfg.obj
 0003:0000127c       ??_C@_07KCAECGNJ@FindStr?$AA@ 004d127c     cfg.obj
 0003:00001288       ??_C@_0M@CHCHHGJD@AbsenceHead?$AA@ 004d1288     cfg.obj
 0003:00001298       ??_C@_04HGGBINEM@?$CFs?$CFd?$AA@ 004d1298     cfg.obj
 0003:000012a0       ??_C@_0L@JEPLMEHL@AbsenceStr?$AA@ 004d12a0     cfg.obj
 0003:000012b0       ??_C@_09PDANAMBA@TcpbufMax?$AA@ 004d12b0     cfg.obj
 0003:000012bc       ??_C@_08LOPNAMKL@TransMax?$AA@ 004d12bc     cfg.obj
 0003:000012c8       ??_C@_07MDPMKDNO@ViewMax?$AA@ 004d12c8     cfg.obj
 0003:000012d4       ??_C@_0L@PAPAKKJI@EncryptNum?$AA@ 004d12d4     cfg.obj
 0003:000012e4       ??_C@_0L@FPOLAEHM@ResolveOpt?$AA@ 004d12e4     cfg.obj
 0003:000012f4       ??_C@_0N@IJELMDGD@FileTransOpt?$AA@ 004d12f4     cfg.obj
 0003:00001304       ??_C@_0O@MBKLOACO@AllowSendList?$AA@ 004d1304     cfg.obj
 0003:00001314       ??_C@_0L@MEDPGNMG@AbsenceMax?$AA@ 004d1314     cfg.obj
 0003:00001324       ??_C@_0N@PHFCOCEE@AbsenceCheck?$AA@ 004d1324     cfg.obj
 0003:00001334       ??_C@_0M@LPAHMDOD@AbsenceSave?$AA@ 004d1334     cfg.obj
 0003:00001344       ??_C@_09CAALBFHM@OpenCheck?$AA@ 004d1344     cfg.obj
 0003:00001350       ??_C@_05GCIPIGEI@Debug?$AA@ 004d1350     cfg.obj
 0003:00001358       ??_C@_07MKBEDNLI@NoErase?$AA@ 004d1358     cfg.obj
 0003:00001364       ??_C@_09FGCIJEML@RecvMax95?$AA@ 004d1364     cfg.obj
 0003:00001370       ??_C@_09HLHALAPI@RecvMaxNT?$AA@ 004d1370     cfg.obj
 0003:0000137c       ??_C@_08LANLCEDL@RetryMax?$AA@ 004d137c     cfg.obj
 0003:00001388       ??_C@_0L@NOMCPOJO@RetryMSec2?$AA@ 004d1388     cfg.obj
 0003:00001398       ??_C@_0M@DJJJCNGE@ListGetMSec?$AA@ 004d1398     cfg.obj
 0003:000013a8       ??_C@_07HIKJBCNP@ListGet?$AA@ 004d13a8     cfg.obj
 0003:000013b4       ??_C@_06MAONOPAP@NoBeep?$AA@ 004d13b4     cfg.obj
 0003:000013bc       ??_C@_09CEINJDHL@ipmsg?4log?$AA@ 004d13bc     cfg.obj
 0003:000013c8       ??_C@_01PPODPGHN@?$DO?$AA@ 004d13c8     cfg.obj
 0003:000013cc       ??_C@_08HJKGNOAF@IPMsgEng?$AA@ 004d13cc     cfg.obj
 0003:000013d8       ??_C@_07NKOCFHPP@NoPopup?$AA@ 004d13d8     cfg.obj
 0003:000013e4       ??_C@_07NIHPFPLN@HSTools?$AA@ 004d13e4     cfg.obj
 0003:000013f0       ??_C@_08HGIEEILH@FaceName?$AA@ 004d13f0     cfg.obj
 0003:000013fc       ??_C@_0P@IGBPEIAP@PitchAndFamily?$AA@ 004d13fc     cfg.obj
 0003:00001410       ??_C@_07MJEANAEL@Quality?$AA@ 004d1410     cfg.obj
 0003:0000141c       ??_C@_0O@OGEKBAFB@ClipPrecision?$AA@ 004d141c     cfg.obj
 0003:0000142c       ??_C@_0N@LCCCAJPK@OutPrecision?$AA@ 004d142c     cfg.obj
 0003:0000143c       ??_C@_07BJNLJNDP@CharSet?$AA@ 004d143c     cfg.obj
 0003:00001448       ??_C@_09PKLNPOEG@StrikeOut?$AA@ 004d1448     cfg.obj
 0003:00001454       ??_C@_09JNMCJFHD@UnderLine?$AA@ 004d1454     cfg.obj
 0003:00001460       ??_C@_06PPMHIBHB@Italic?$AA@ 004d1460     cfg.obj
 0003:00001468       ??_C@_06ODJMJFLN@Weight?$AA@ 004d1468     cfg.obj
 0003:00001470       ??_C@_0M@LHPCLPIO@Orientation?$AA@ 004d1470     cfg.obj
 0003:00001480       ??_C@_0L@IHKHHILG@Escapement?$AA@ 004d1480     cfg.obj
 0003:00001490       ??_C@_05IBAMDCFI@Width?$AA@ 004d1490     cfg.obj
 0003:00001498       ??_C@_06HCAKHJJK@Height?$AA@ 004d1498     cfg.obj
 0003:000014a0       ??_C@_05CCMOGDN@?$CFs?3?$CFs?$AA@ 004d14a0     cfg.obj
 0003:000014a8       ??_C@_03HHEBJBCJ@_?$CFs?$AA@ 004d14a8     cfg.obj
 0003:000014ac       ??_C@_02DKCKIIND@?$CFs?$AA@ 004d14ac     cfg.obj
 0003:000014b0       ??_C@_0DL@PAPAIKFB@?$EA?$CI?$CD?$CJCopyright?5?$CIC?$CJ?5H?4Shirouzu?5199@ 004d14b0     Ipmsg.obj
 0003:000014fc       ??_7TMsgApp@@6B@           004d14fc     Ipmsg.obj
 0003:00001510       ??_C@_05ELAMGBLK@IPMsg?$AA@ 004d1510     Ipmsg.obj
 0003:00001518       ??_C@_05LFHGFJK@?$CFs_?$CFd?$AA@ 004d1518     Ipmsg.obj
 0003:00001520       ??_C@_08LEPLNHFC@?$CFs_?$CFd_?$CFs?$AA@ 004d1520     Ipmsg.obj
 0003:00001530       ??_C@_0GN@PPOJAGO@ipmsg?4exe?5?$FLportno?$FN?5?$FL?1MSG?5?$FL?1LOG?$FN?5@ 004d1530     Ipmsg.obj
 0003:000015b4       ??_C@_03GLPMCEFE@msg?$AA@  004d15b4     Ipmsg.obj
 0003:000015b8       ??_C@_05EGCKBDFF@?1SEAL?$AA@ 004d15b8     Ipmsg.obj
 0003:000015c0       ??_C@_04GPHAEEIN@?1LOG?$AA@ 004d15c0     Ipmsg.obj
 0003:000015c8       ??_C@_04MCPAHJPM@?1MSG?$AA@ 004d15c8     Ipmsg.obj
 0003:000015d0       ??_C@_04KFJIDFLA@?1NIC?$AA@ 004d15d0     Ipmsg.obj
 0003:000015d8       ??_C@_0M@COOKPGDE@ipmsg_class?$AA@ 004d15d8     Ipmsg.obj
 0003:000015e8       ??_C@_0DM@KIEACNJN@?$EA?$CI?$CD?$CJCopyright?5?$CIC?$CJ?5H?4Shirouzu?5199@ 004d15e8     Logdlg.obj
 0003:00001634       ??_7TLogDlg@@6B@           004d1634     Logdlg.obj
 0003:00001754       ??_C@_0BC@OEIGFPN@LogFile?5selection?$AA@ 004d1754     Logdlg.obj
 0003:0000176c       ??_C@_0CK@GLNDIECL@LogFile?$CI?$CK?4log?$CJ?$AA?$CK?4log?$AAAll?5Files?$CI?$CK@ 004d176c     Logdlg.obj
 0003:000017a0       ??_C@_0BD@FGFCAAKM@IconFile?5selection?$AA@ 004d17a0     Logdlg.obj
 0003:000017b8       ??_C@_0ED@MPBNHPOE@IconFile?$CI?$CK?4ico?0?$CK?4exe?0?$CK?4dll?$CJ?$AA?$CK?4ic@ 004d17b8     Logdlg.obj
 0003:00001808       ??_C@_0HJ@GCNKMCEP@There?8s?5a?5possibility?5to?5create?5@ 004d1808     Logdlg.obj
 0003:0000189c       ??_C@_0BE@BBIKPIEC@SoundFile?5selection?$AA@ 004d189c     Logdlg.obj
 0003:000018b4       ??_C@_0CM@OKMBMIFC@SoundFile?$CI?$CK?4wav?$CJ?$AA?$CK?4wav?$AAAll?5Files@ 004d18b4     Logdlg.obj
 0003:000018e8       ??_C@_06OLFGIINA@?2Media?$AA@ 004d18e8     Logdlg.obj
 0003:000018f0       ??_C@_00CNPNBAHC@?$AA@     004d18f0     Logdlg.obj
 0003:000018f4       ??_C@_0DM@NNLNJCNC@?$EA?$CI?$CD?$CJCopyright?5?$CIC?$CJ?5H?4Shirouzu?5199@ 004d18f4     Logmng.obj
 0003:0000193c       ??_C@_09PMHOBNMB@?5To?3?5?$CFs?$AN?6?$AA@ 004d193c     Logmng.obj
 0003:00001948       ??_C@_02PCIJFNDE@?$AN?6?$AA@ 004d1948     Logmng.obj
 0003:0000194c       ??_C@_07GMMMCFOP@?5From?3?5?$AA@ 004d194c     Logmng.obj
 0003:00001958       ??_C@_0CI@NOEENFBB@?$DN?$DN?$DN?$DN?$DN?$DN?$DN?$DN?$DN?$DN?$DN?$DN?$DN?$DN?$DN?$DN?$DN?$DN?$DN?$DN?$DN?$DN?$DN?$DN?$DN?$DN?$DN?$DN?$DN?$DN?$DN?$DN@ 004d1958     Logmng.obj
 0003:00001988       ??_C@_04FMMHFHOO@?$AN?6?$AN?6?$AA@ 004d1988     Logmng.obj
 0003:00001990       ??_C@_0CK@GDAEPDBJ@?$AN?6?9?9?9?9?9?9?9?9?9?9?9?9?9?9?9?9?9?9?9?9?9?9?9?9?9?9?9?9?9?9@ 004d1990     Logmng.obj
 0003:000019c4       ??_C@_04HDOCAJNK@?$CFs?$CFs?$AA@ 004d19c4     Logmng.obj
 0003:000019cc       ??_C@_02KEGNLNML@?0?5?$AA@ 004d19cc     Logmng.obj
 0003:000019d0       ??_C@_0N@FAKEFMHH@?$AN?6?5?5?$CIfiles?$CJ?5?$AA@ 004d19d0     Logmng.obj
 0003:000019e0       ??_C@_08EDIEIDEO@?$CIsealed?$CJ?$AA@ 004d19e0     Logmng.obj
 0003:000019ec       ??_C@_08LNIHICJM@?$CIlocked?$CJ?$AA@ 004d19ec     Logmng.obj
 0003:000019f8       ??_C@_05LLHJNPM@?$CIRSA?$CJ?$AA@ 004d19f8     Logmng.obj
 0003:00001a00       ??_C@_07LKBPCKOB@?$CImulti?$CJ?$AA@ 004d1a00     Logmng.obj
 0003:00001a0c       ??_C@_06IPMLMAAH@?$CIauto?$CJ?$AA@ 004d1a0c     Logmng.obj
 0003:00001a14       ??_C@_0M@MEHHBLHA@?$CIbroadcast?$CJ?$AA@ 004d1a14     Logmng.obj
 0003:00001a24       ??_C@_01CLKCMJKC@?5?$AA@   004d1a24     Logmng.obj
 0003:00001a28       ??_C@_05MNLGAACG@?5?5at?5?$AA@ 004d1a28     Logmng.obj
 0003:00001a30       ??_C@_02HDBGODGB@?2?2?$AA@ 004d1a30     Logmng.obj
 0003:00001a34       ??_C@_0DN@OIDPDOOH@?$EA?$CI?$CD?$CJCopyright?5?$CIC?$CJ?5H?4Shirouzu?5199@ 004d1a34     Mainwin.obj
 0003:00001a84       ??_7TMainWin@@6B@          004d1a84     Mainwin.obj
 0003:00001b98       ??_C@_0CO@JIFKGGLF@CryptoAPI?5can?8t?5be?5used?4?5Setup?5N@ 004d1b98     Mainwin.obj
 0003:00001bd0       ??_C@_0P@HDDEAF@TaskbarCreated?$AA@ 004d1bd0     Mainwin.obj
 0003:00001be4       ??_C@_06GAMDLPO@?$CFs?$CI?$CFs?$CJ?$AA@ 004d1be4     Mainwin.obj
 0003:00001bec       ??_C@_07GOFPHIJ@Lifting?$AA@ 004d1bec     Mainwin.obj
 0003:00001bf8       ??_C@_0N@IEGCOEKL@Absence?5Mode?$AA@ 004d1bf8     Mainwin.obj
 0003:00001c08       ??_C@_0BD@NNDFBKJJ@Detail?5Settings?4?4?4?$AA@ 004d1c08     Mainwin.obj
 0003:00001c20       ??_C@_04EFDOOIF@?$CF04x?$AA@ 004d1c20     Mainwin.obj
 0003:00001c28       ??_C@_0N@PPPOHEFB@0000?3?4?30?3?$CFx?3?$AA@ 004d1c28     Mainwin.obj
 0003:00001c38       ??_C@_0BJ@PMOGDFFF@0000?3?4?30?3?$CFx?3?$CFx?$DN?$CFx?3?$CFx?$DN?$CFx?3?$AA@ 004d1c38     Mainwin.obj
 0003:00001c58       ??_C@_0BP@INHEIMOG@0000?3?$CFs?3?$CFx?$CF08x?3?$CFx?3?$CFx?$DN?$CFx?3?$CFx?$DN?$CFx?3?$AA@ 004d1c58     Mainwin.obj
 0003:00001c80       ??_C@_0O@BIGEBEGP@?5?$CICan?8t?5open?$CJ?$AA@ 004d1c80     Mainwin.obj
 0003:00001c90       ??_C@_02DJGKEECL@?4?4?$AA@ 004d1c90     Mainwin.obj
 0003:00001c94       ??_C@_01LFCBOECM@?4?$AA@   004d1c94     Mainwin.obj
 0003:00001c98       ??_C@_01NBENCBCI@?$CK?$AA@ 004d1c98     Mainwin.obj
 0003:00001c9c       ??_C@_0N@OHOCGOKB@Win32?5ed?4?5?$CFs?$AA@ 004d1c9c     Mainwin.obj
 0003:00001cac       ??_C@_06CBDDGGOM@?$CFX?3?$CFX?9?$AA@ 004d1cac     Mainwin.obj
 0003:00001cb4       ??_C@_08EHKPIKED@?$CFs?$AN?6?$CI?$CFs?$CJ?$AA@ 004d1cb4     Mainwin.obj
 0003:00001cc0       ??_C@_0P@HDGJHABL@Message?5Opened?$AA@ 004d1cc0     Mainwin.obj
 0003:00001cd4       ??_C@_0BB@GJLFMMFI@Not?5Absence?5mode?$AA@ 004d1cd4     Mainwin.obj
 0003:00001ce8       ??_C@_09PFCHIMEP@127?40?40?41?$AA@ 004d1ce8     Mainwin.obj
 0003:00001cf4       ??_C@_07GBELBJMM@?$CI?$CFd?1?$CFd?$CJ?$AA@ 004d1cf4     Mainwin.obj
 0003:00001d00       ??_C@_0BB@FKNFAEIE@Download?5monitor?$AA@ 004d1d00     Mainwin.obj
 0003:00001d14       ??_C@_09BLKEBPCD@IPMsg?$CI?$CFd?$CJ?$AA@ 004d1d14     Mainwin.obj
 0003:00001d20       ??_C@_08FOGKFGJO@?$CF5d?$CFc?$CF5d?$AA@ 004d1d20     Mainwin.obj
 0003:00001d2c       ??_C@_0BO@LKLEJJFK@?$CFs?$CFc?$CFs?$CFc?$CFld?$CFc?$CFs?$CFc?$CFd?$CFc?$CFs?$CFc?$CFs?$CFc?$AA@ 004d1d2c     Mainwin.obj
 0003:00001d50       ??_C@_01HGPPGHAI@?$AI?$AA@ 004d1d50     Mainwin.obj
 0003:00001d54       ??_C@_0L@BNJMLBFA@?$CF5d?$CFc?$CF5d?$CFc?$AA@ 004d1d54     Mainwin.obj
 0003:00001d64       ??_C@_0BE@MLNJAEDH@Can?8t?5open?5log?5file?$AA@ 004d1d64     Mainwin.obj
 0003:00001d7c       ??_C@_0BM@GJDDLMCN@Invalid?5file?5extention?5link?$AA@ 004d1d7c     Mainwin.obj
 0003:00001da0       ??_C@_06PDCNBNBD@?$CFs?$FL?$CFs?$FN?$AA@ 004d1da0     Mainwin.obj
 0003:00001da8       ??_C@_0CA@GELMDEPK@RSA?5failed?4?5Create?5New?5RSA?5key?$DP?$AA@ 004d1da8     Mainwin.obj
 0003:00001dd0       ??_C@_0BE@FGGGKAFM@CryptAcquireContext?$AA@ 004d1dd0     Mainwin.obj
 0003:00001de8       ??_C@_0BD@LKFKHCKL@CryptUnprotectData?$AA@ 004d1de8     Mainwin.obj
 0003:00001e00       ??_C@_0BB@CEIBPBDD@CryptProtectData?$AA@ 004d1e00     Mainwin.obj
 0003:00001e14       ??_C@_0M@DNEEGAAA@crypt32?4dll?$AA@ 004d1e14     Mainwin.obj
 0003:00001e24       ??_C@_0BE@FBIJLPPP@CryptReleaseContext?$AA@ 004d1e24     Mainwin.obj
 0003:00001e3c       ??_C@_0BG@LMDODOM@CryptVerifySignatureA?$AA@ 004d1e3c     Mainwin.obj
 0003:00001e58       ??_C@_0P@JNEKOFOB@CryptSignHashA?$AA@ 004d1e58     Mainwin.obj
 0003:00001e6c       ??_C@_0O@DAIMODJH@CryptHashData?$AA@ 004d1e6c     Mainwin.obj
 0003:00001e7c       ??_C@_0BA@IEJOIHIJ@CryptCreateHash?$AA@ 004d1e7c     Mainwin.obj
 0003:00001e90       ??_C@_0N@JGGKHKPO@CryptDecrypt?$AA@ 004d1e90     Mainwin.obj
 0003:00001ea0       ??_C@_0P@HBKFFJF@CryptImportKey?$AA@ 004d1ea0     Mainwin.obj
 0003:00001eb4       ??_C@_0P@HGPEDCEI@CryptGenRandom?$AA@ 004d1eb4     Mainwin.obj
 0003:00001ec8       ??_C@_0M@LEBPENDF@CryptGenKey?$AA@ 004d1ec8     Mainwin.obj
 0003:00001ed8       ??_C@_0N@FIMHCOJK@CryptEncrypt?$AA@ 004d1ed8     Mainwin.obj
 0003:00001ee8       ??_C@_0BA@OBMCEIAO@CryptGetUserKey?$AA@ 004d1ee8     Mainwin.obj
 0003:00001efc       ??_C@_0P@PLHBLCCF@CryptExportKey?$AA@ 004d1efc     Mainwin.obj
 0003:00001f10       ??_C@_0BB@FIFCHFKF@CryptSetKeyParam?$AA@ 004d1f10     Mainwin.obj
 0003:00001f24       ??_C@_0BB@FHEMKDCG@CryptGetKeyParam?$AA@ 004d1f24     Mainwin.obj
 0003:00001f38       ??_C@_0BA@FJKBDIMN@CryptDestroyKey?$AA@ 004d1f38     Mainwin.obj
 0003:00001f4c       ??_C@_0BF@ILOJAFDL@CryptAcquireContextA?$AA@ 004d1f4c     Mainwin.obj
 0003:00001f68       ??_C@_08DOPOLOOH@advapi32?$AA@ 004d1f68     Mainwin.obj
 0003:00001f74       ??_C@_0N@INAGJMNN@advapi32?4dll?$AA@ 004d1f74     Mainwin.obj
 0003:00001f84       ??_C@_0BF@KIHNODDP@CryptDecrypt?5test512?$AA@ 004d1f84     Mainwin.obj
 0003:00001fa0       ??_C@_0BH@PLENBFMG@CryptImportKey?5test512?$AA@ 004d1fa0     Mainwin.obj
 0003:00001fbc       ??_C@_0BE@CJLMDJE@CryptGenKey?5test512?$AA@ 004d1fbc     Mainwin.obj
 0003:00001fd4       ??_C@_0BH@EELBJDN@CryptExportKey?5test512?$AA@ 004d1fd4     Mainwin.obj
 0003:00001ff0       ??_C@_0BF@NIOBNEFA@CryptEncrypt?5test512?$AA@ 004d1ff0     Mainwin.obj
 0003:0000200c       ??_C@_0BG@EANIGCIM@CryptDecrypt?5test1024?$AA@ 004d200c     Mainwin.obj
 0003:00002028       ??_C@_0BI@IEOKBIMC@CryptImportKey?5test1024?$AA@ 004d2028     Mainwin.obj
 0003:00002044       ??_C@_0BG@JNKFICHC@CryptEncrypt?5test1024?$AA@ 004d2044     Mainwin.obj
 0003:00002060       ??_C@_04BFLDNEEA@RSA1?$AA@ 004d2060     Mainwin.obj
 0003:00002068       ??_C@_0BF@OEPECCD@CryptImportKey?$CIblob?$CJ?$AA@ 004d2068     Mainwin.obj
 0003:00002084       ??_C@_0BN@HLJGOHCH@CryptAcquireContext?$CIdestroy?$CJ?$AA@ 004d2084     Mainwin.obj
 0003:000020a8       ??_C@_0P@FEJOENGH@ipmsg?4rsa?$CFd?4?$CFs?$AA@ 004d20a8     Mainwin.obj
 0003:000020bc       ??_C@_0CP@NOGIKMI@Microsoft?5Enhanced?5Cryptographic@ 004d20bc     Mainwin.obj
 0003:000020f4       ??_C@_0CL@FODAGGJJ@Microsoft?5Base?5Cryptographic?5Pro@ 004d20f4     Mainwin.obj
 0003:00002128       ??_C@_06HIGJLCE@ipmsg?3?$AA@ 004d2128     Mainwin.obj
 0003:00002130       ??_C@_1M@KHDBOPCO@?$AAi?$AAp?$AAm?$AAs?$AAg?$AA?$AA@ 004d2130     Mainwin.obj
 0003:00002140       ??_C@_03GDMIGCCC@Ver?$AA@  004d2140     Mainwin.obj
 0003:00002144       ??_C@_0BB@JCEFLFJE@0123456789abcdef?$AA@ 004d2144     Miscdlg.obj
 0003:00002158       ??_C@_0CF@KBKGNPKM@JanFebMarAprMayJunJulAugSepOctNo@ 004d2158     Miscdlg.obj
 0003:00002184       ??_C@_0BG@FPICGDJJ@SunMonTueWedThuFriSat?$AA@ 004d2184     Miscdlg.obj
 0003:000021a0       ??_C@_0DN@LGBFIBID@?$EA?$CI?$CD?$CJCopyright?5?$CIC?$CJ?5H?4Shirouzu?5199@ 004d21a0     Miscdlg.obj
 0003:000021f4       ??_7TMsgDlg@@6B@           004d21f4     Miscdlg.obj
 0003:00002324       ??_7TListDlg@@6B@          004d2324     Miscdlg.obj
 0003:0000244c       ??_7TAboutDlg@@6B@         004d244c     Miscdlg.obj
 0003:0000256c       ??_C@_0CD@GHGHIPNC@http?3?1?1www?4ipmsg?4org?1index?4html?4@ 004d256c     Miscdlg.obj
 0003:0000259c       ??_7TListViewEx@@6B@       004d259c     Miscdlg.obj
 0003:000026bc       ??_7TEditSub@@6B@          004d26bc     Miscdlg.obj
 0003:000027d4       ??_C@_0O@PMKMBLLL@Can?8t?5Execute?$AA@ 004d27d4     Miscdlg.obj
 0003:000027e4       ??_C@_03GACAABJG@?3?1?1?$AA@ 004d27e4     Miscdlg.obj
 0003:000027e8       ??_C@_04DEKFDDBK@?$AN?6?7?5?$AA@ 004d27e8     Miscdlg.obj
 0003:000027f4       ??_7TSeparateSub@@6B@      004d27f4     Miscdlg.obj
 0003:00002914       ??_7TAbsenceDlg@@6B@       004d2914     Miscdlg.obj
 0003:00002a3c       ??_7TSortDlg@@6B@          004d2a3c     Miscdlg.obj
 0003:00002b64       ??_7TUrlDlg@@6B@           004d2b64     Miscdlg.obj
 0003:00002c84       ??_C@_0CK@MJIDECPP@Program?$CI?$CK?4exe?$CJ?$AA?$CK?4exe?$AAAll?5Files?$CI?$CK@ 004d2c84     Miscdlg.obj
 0003:00002cb8       ??_C@_0BD@PFDNLOAD@?$CFs?5Execute?5Program?$AA@ 004d2cb8     Miscdlg.obj
 0003:00002cd4       ??_7TPasswordDlg@@6B@      004d2cd4     Miscdlg.obj
 0003:00002df4       ??_C@_0BG@KJIOHJJD@authentication?5failed?$AA@ 004d2df4     Miscdlg.obj
 0003:00002e14       ??_7TPasswdChangeDlg@@6B@  004d2e14     Miscdlg.obj
 0003:00002f34       ??_C@_0CC@DGNFLCDA@New?5passwords?5varification?5faile@ 004d2f34     Miscdlg.obj
 0003:00002f5c       ??_C@_01PKGAHCOL@?$CJ?$AA@ 004d2f5c     Miscdlg.obj
 0003:00002f60       ??_C@_03BMHODBLF@?1?$CFs?$AA@ 004d2f60     Miscdlg.obj
 0003:00002f64       ??_C@_07OKECDBBJ@?$CI?$CFs?$CFs?$CFs?$AA@ 004d2f64     Miscdlg.obj
 0003:00002f70       ??_C@_01KMDKNFGN@?1?$AA@   004d2f70     Miscdlg.obj
 0003:00002f74       ??_C@_03IKGEINEE@?$CFs?5?$AA@ 004d2f74     Miscdlg.obj
 0003:00002f7c       ??_7TFindDlg@@6B@          004d2f7c     Miscdlg.obj
 0003:0000309c       ??_C@_0O@CAJFANGM@?$CFs?5error?5?$DN?5?$CFx?$AA@ 004d309c     Miscdlg.obj
 0003:000030ac       ??_C@_0O@MGOCFADB@?$CFs?5error?5?$DN?5?$CFd?$AA@ 004d30ac     Miscdlg.obj
 0003:000030bc       ??_C@_09GPGAJHPD@?$CIunknown?$CJ?$AA@ 004d30bc     Miscdlg.obj
 0003:000030c8       ??_C@_06LHLCKDBO@?$CIroot?$CJ?$AA@ 004d30c8     Miscdlg.obj
 0003:000030d0       ??_C@_0L@OPPBJKJD@?$CI?$CFc?9drive?$CJ?$AA@ 004d30d0     Miscdlg.obj
 0003:000030e0       ??_C@_06DIJPEION@?$CFs?$CFs?$CFs?$AA@ 004d30e0     Miscdlg.obj
 0003:000030e8       ??_C@_01KICIPPFI@?2?$AA@   004d30e8     Miscdlg.obj
 0003:000030ec       ??_C@_0CD@KLAOOFNB@?$CF?43s?5?$CF?43s?5?$CF02d?5?$CF02d?3?$CF02d?3?$CF02d?5?$CF0@ 004d30ec     Miscdlg.obj
 0003:00003118       ??_C@_06KCFIJLFG@?$CFd?$CFsKB?$AA@ 004d3118     Miscdlg.obj
 0003:00003120       ??_C@_09JMDEDILE@?$CFd?4?$CFd?$CFsMB?$AA@ 004d3120     Miscdlg.obj
 0003:0000312c       ??_C@_06KGNFOHOE@?$CFd?$CFsMB?$AA@ 004d312c     Miscdlg.obj
 0003:00003134       ??_C@_05CNFDOELG@ipmsg?$AA@ 004d3134     Miscdlg.obj
 0003:0000313c       ??_C@_0DM@DIAFDHJI@?$EA?$CI?$CD?$CJCopyright?5?$CIC?$CJ?5H?4Shirouzu?5199@ 004d313c     Msgmng.obj
 0003:00003184       ??_C@_07CCIHIKOK@no_name?$AA@ 004d3184     Msgmng.obj
 0003:00003190       ??_C@_0BC@GDIJHIFF@GetComputerName?$CI?$CJ?$AA@ 004d3190     Msgmng.obj
 0003:000031a8       ??_C@_0BK@NCNMJPAK@setsockopt?5tcp?$CIreuseaddr?$CJ?$AA@ 004d31a8     Msgmng.obj
 0003:000031c8       ??_C@_0BE@JOGIIPEE@setsockopt?$CIrecvbuf?$CJ?$AA@ 004d31c8     Msgmng.obj
 0003:000031e0       ??_C@_0BE@KGNKFJFH@setsockopt?$CIsendbuf?$CJ?$AA@ 004d31e0     Msgmng.obj
 0003:000031f8       ??_C@_0BG@KFKNKHKJ@setsockopt?$CIbroadcast?$CJ?$AA@ 004d31f8     Msgmng.obj
 0003:00003214       ??_C@_0BK@DHFBKFMI@ioctlsocket?5tcp?$CInonblock?$CJ?$AA@ 004d3214     Msgmng.obj
 0003:00003234       ??_C@_0BG@LODKPKEM@ioctlsocket?$CInonblock?$CJ?$AA@ 004d3234     Msgmng.obj
 0003:00003250       ??_C@_0CL@JFFLKPEC@bind?$CItcp?$CJ?5error?4?5Can?8t?5support?5f@ 004d3250     Msgmng.obj
 0003:00003284       ??_C@_06LBBPACBE@bind?$CI?$CJ?$AA@ 004d3284     Msgmng.obj
 0003:0000328c       ??_C@_0CO@CGAEECBB@Please?5setup2?5TCP?1IP?$CIcontrolpane@ 004d328c     Msgmng.obj
 0003:000032c4       ??_C@_0CN@LAHAMOMG@Please?5setup?5TCP?1IP?$CIcontrolpanel@ 004d32c4     Msgmng.obj
 0003:000032fc       ??_C@_0L@ELEGHMIO@WSAStart?$CI?$CJ?$AA@ 004d32fc     Msgmng.obj
 0003:0000330c       ??_C@_0BC@IDNLBGJA@?$CFd?3?$CFld?3?$CFs?3?$CFs?3?$CFld?3?$AA@ 004d330c     Msgmng.obj
 0003:00003324       ??_C@_0DN@HNJGDAJ@?$EA?$CI?$CD?$CJCopyright?5?$CIC?$CJ?5H?4Shirouzu?5199@ 004d3324     Recvdlg.obj
 0003:00003370       ??_C@_0BAK@GICFCFHJ@?$AN?6?5?$DN?$DN?$DN?$DN?5AutoReply?$CIDecryptErr?$CJ?5?$DN?$DN@ 004d3370     Recvdlg.obj
 0003:000034b4       ??_7TRecvDlg@@6B@          004d34b4     Recvdlg.obj
 0003:000035e4       ??_C@_0BH@JIMFHJKA@CryptImportKey?5Err?$CI?$CFX?$CJ?$AA@ 004d35e4     Recvdlg.obj
 0003:00003600       ??_C@_0BF@MLPFIPFJ@CryptDecrypt?5Err?$CI?$CFX?$CJ?$AA@ 004d3600     Recvdlg.obj
 0003:0000361c       ??_C@_09JAMNGPDJ@Intercept?$AA@ 004d361c     Recvdlg.obj
 0003:00003628       ??_C@_09OCPJPMC@?5?$CILocked?$CJ?$AA@ 004d3628     Recvdlg.obj
 0003:00003634       ??_C@_08DEMCODMD@?5?$CIfiles?$CJ?$AA@ 004d3634     Recvdlg.obj
 0003:00003640       ??_C@_05BLGBMFKM@at?5?$CFs?$AA@ 004d3640     Recvdlg.obj
 0003:00003648       ??_C@_02BINJDKOC@?5?9?$AA@ 004d3648     Recvdlg.obj
 0003:0000364c       ??_C@_02EOIDJNGE@?5?$CL?$AA@ 004d364c     Recvdlg.obj
 0003:00003650       ??_C@_0BP@JJGELPOH@Message?5from?5?$CIAbsence?5Mode?$CJ?4?4?4?$AA@ 004d3650     Recvdlg.obj
 0003:00003678       ??_C@_0BA@CHJEEPHI@Message?5from?4?4?4?$AA@ 004d3678     Recvdlg.obj
 0003:0000368c       ??_C@_0BC@OHAHOFON@Multicast?5from?4?4?4?$AA@ 004d368c     Recvdlg.obj
 0003:000036a4       ??_C@_0BC@NIDNNIKD@Broadcast?5from?4?4?4?$AA@ 004d36a4     Recvdlg.obj
 0003:000036bc       ??_C@_0BC@KJKPOEIH@Suspend?5transfer?$DP?$AA@ 004d36bc     Recvdlg.obj
 0003:000036d4       ??_C@_03JALODAI@?$CFld?$AA@ 004d36d4     Recvdlg.obj
 0003:000036d8       ??_C@_0BF@DKCIFBLM@Prepare?5for?5transfer?$AA@ 004d36d8     Recvdlg.obj
 0003:000036f4       ??_C@_0N@CIMPECAD@Fix?5Position?$AA@ 004d36f4     Recvdlg.obj
 0003:00003704       ??_C@_0N@OIJPMOMH@Size?5Setting?$AA@ 004d3704     Recvdlg.obj
 0003:00003714       ??_C@_0N@HIMJCDHB@Font?5Setting?$AA@ 004d3714     Recvdlg.obj
 0003:00003724       ??_C@_09JDLFPAEI@?$CFx?3?$CFx?3?$CFx?3?$AA@ 004d3724     Recvdlg.obj
 0003:00003730       ??_C@_06BLFBKBKM@?$CFx?3?$CFx?3?$AA@ 004d3730     Recvdlg.obj
 0003:00003738       ??_C@_0BC@LLMNAEOE@Pathname?5too?5long?$AA@ 004d3738     Recvdlg.obj
 0003:00003750       ??_C@_0BC@MGBFNDL@Can?8t?5create?5file?$AA@ 004d3750     Recvdlg.obj
 0003:00003768       ??_C@_0BC@MBEBGKD@Not?5safe?5pathname?$AA@ 004d3768     Recvdlg.obj
 0003:00003780       ??_C@_0BB@OADLCFLG@Can?8t?5write?5file?$AA@ 004d3780     Recvdlg.obj
 0003:00003794       ??_C@_09LINGCEIN@?1s?5?$CI?$CFd?$CF?$CF?$CJ?$AA@ 004d3794     Recvdlg.obj
 0003:000037a0       ??_C@_03DEBLNGGJ@?1s?$CJ?$AA@ 004d37a0     Recvdlg.obj
 0003:000037a4       ??_C@_0L@BDDDFNBA@?1?$CFdfiles?5?$CI?$AA@ 004d37a4     Recvdlg.obj
 0003:000037b4       ??_C@_06BHCKJACF@Total?5?$AA@ 004d37b4     Recvdlg.obj
 0003:000037bc       ??_C@_08DLPNCJFO@?$CFd?5files?$AA@ 004d37bc     Recvdlg.obj
 0003:000037c8       ??_C@_07DFHLNGHO@?5sec?5?5?5?$AA@ 004d37c8     Recvdlg.obj
 0003:000037d4       ??_C@_05KMOPPNJC@?4?$CF02d?$AA@ 004d37d4     Recvdlg.obj
 0003:000037dc       ??_C@_07OPJCMAFJ@?1s?$CJ?$AN?6?$CFd?$AA@ 004d37dc     Recvdlg.obj
 0003:000037e8       ??_C@_02GFKOMOKH@?5?$CI?$AA@ 004d37e8     Recvdlg.obj
 0003:000037ec       ??_C@_07MPCGPMND@Total?3?5?$AA@ 004d37ec     Recvdlg.obj
 0003:000037fc       ??_7RecvTransEndDlg@@6B@   004d37fc     Recvdlg.obj
 0003:0000391c       ??_C@_0DN@FCHIJOBO@?$EA?$CI?$CD?$CJCopyright?5?$CIC?$CJ?5H?4Shirouzu?5199@ 004d391c     Senddlg.obj
 0003:0000396c       ??_7TSendDlg@@6B@          004d396c     Senddlg.obj
 0003:00003a8c       ??_C@_04OHLPDOFO@Fire?$AA@ 004d3a8c     Senddlg.obj
 0003:00003a94       ??_C@_0L@NGHMMCPJ@IP?5Address?$AA@ 004d3a94     Senddlg.obj
 0003:00003aa4       ??_C@_05DDMBHBFJ@Logon?$AA@ 004d3aa4     Senddlg.obj
 0003:00003aac       ??_C@_04CPPPJGME@Host?$AA@ 004d3aac     Senddlg.obj
 0003:00003ab4       ??_C@_05MBDCODDP@Group?$AA@ 004d3ab4     Senddlg.obj
 0003:00003abc       ??_C@_04ODLBFFJE@User?$AA@ 004d3abc     Senddlg.obj
 0003:00003ac4       ??_C@_0BP@FHLCHPII@Initialize?5Priority?5by?5default?$AA@ 004d3ac4     Senddlg.obj
 0003:00003aec       ??_C@_0BH@JDAKFKFC@Select?5transfer?5folder?$AA@ 004d3aec     Senddlg.obj
 0003:00003b08       ??_C@_0CI@DKFINIGC@Absence?5mode?5now?4?5Release?5and?5se@ 004d3b08     Senddlg.obj
 0003:00003b38       ??_C@_0FD@PPFKDNIP@comctl32?4dll?5is?5old?5?$DP?$AN?6Please?5ge@ 004d3b38     Senddlg.obj
 0003:00003b9c       ??_C@_0BH@OEFMIKLD@Can?8t?5get?5column?5order?$AA@ 004d3b9c     Senddlg.obj
 0003:00003bb8       ??_C@_0BH@JFDPFDAJ@Sending?5failed?4?5Retry?$DP?$AA@ 004d3bb8     Senddlg.obj
 0003:00003bd4       ??_C@_01CNACBAHC@?$PP?$AA@ 004d3bd4     Senddlg.obj
 0003:00003bd8       ??_C@_0BB@KPDCKOAI@Busy?4?4?4try?5again?$AA@ 004d3bd8     Senddlg.obj
 0003:00003bec       ??_C@_06BAKIELHL@?$CFX?3?$CFs?3?$AA@ 004d3bec     Senddlg.obj
 0003:00003bf4       ??_C@_0BB@DOEMHNKA@CryptEncrypt?5RC2?$AA@ 004d3bf4     Senddlg.obj
 0003:00003c08       ??_C@_02NJNOFBBI@?$CFx?$AA@ 004d3c08     Senddlg.obj
 0003:00003c0c       ??_C@_0N@DJGBIFHB@Group?5Select?$AA@ 004d3c0c     Senddlg.obj
 0003:00003c1c       ??_C@_0M@JAOMMFPN@Sort?1Filter?$AA@ 004d3c1c     Senddlg.obj
 0003:00003c2c       ??_C@_0CE@JKLBBNFN@All?5Member?5move?5to?5Default?5Prior@ 004d3c2c     Senddlg.obj
 0003:00003c58       ??_C@_0CE@NAFDIAPJ@Display?5NoDisplayGroup?5as?5tempol@ 004d3c58     Senddlg.obj
 0003:00003c84       ??_C@_0BE@BODMHAFK@?5?$CIMember?5?$CF2d?5?1?5?$CF2d?$CJ?$AA@ 004d3c84     Senddlg.obj
 0003:00003c9c       ??_C@_0O@GPFFMKFM@?5?$CIMember?5?$CF2d?$CJ?$AA@ 004d3c9c     Senddlg.obj
 0003:00003cac       ??_C@_0BE@NEFJGPOE@Display?5Priority?5?$CFd?$AA@ 004d3cac     Senddlg.obj
 0003:00003cc4       ??_C@_0BC@KNHGBHBK@Default?5Display?5?5?$AA@ 004d3cc4     Senddlg.obj
 0003:00003cdc       ??_C@_0N@KCAGJCDN@No?5Display?5?5?$AA@ 004d3cdc     Senddlg.obj
 0003:00003cec       ??_C@_07MILNMFJN@Move?5to?$AA@ 004d3cec     Senddlg.obj
 0003:00003cf8       ??_C@_0BA@MELAGCJB@Disp?5Setting?4?4?4?$AA@ 004d3cf8     Senddlg.obj
 0003:00003d0c       ??_C@_0BB@BMHLAEIP@Save?5List?5Header?$AA@ 004d3d0c     Senddlg.obj
 0003:00003d20       ??_C@_0BC@EJGPLJMN@?$CIFolder?$CJ?5Transfer?$AA@ 004d3d20     Senddlg.obj
 0003:00003d38       ??_C@_0O@HAABHNHJ@File?5Transfer?$AA@ 004d3d38     Senddlg.obj
 0003:00003d48       ??_C@_0BC@KBHHGGKL@Search?5User?5Ctl?$CLF?$AA@ 004d3d48     Senddlg.obj
 0003:00003d60       ??_C@_0DO@FENJNAMH@?$EA?$CI?$CD?$CJCopyright?5?$CIC?$CJ?5H?4Shirouzu?5199@ 004d3d60     Setupdlg.obj
 0003:00003db4       ??_7TSetupDlg@@6B@         004d3db4     Setupdlg.obj
 0003:00003ed4       ??_C@_0O@ELEHHMCN@Can?8t?5resolve?$AA@ 004d3ed4     Setupdlg.obj
 0003:00003ee4       ??_C@_0DG@PMCMIIDL@?$EA?$CI?$CD?$CJCopyright?5?$CIC?$CJ?5H?4Shirouzu?5200@ 004d3ee4     share.obj
 0003:00003f2c       ??_7TShareDlg@@6B@         004d3f2c     share.obj
 0003:0000404c       ??_C@_08CBBFJFMD@location?$AA@ 004d404c     share.obj
 0003:00004058       ??_C@_04IAGNFIBA@size?$AA@ 004d4058     share.obj
 0003:00004060       ??_C@_08BABJIOEM@filename?$AA@ 004d4060     share.obj
 0003:0000406c       ??_C@_05MFNDFFAM@?$CIDIR?$CJ?$AA@ 004d406c     share.obj
 0003:00004074       ??_C@_08MDNDEPDH@File?5Add?$AA@ 004d4074     share.obj
 0003:00004080       ??_C@_0BF@CEAHIHDD@All?5Files?$CI?$CK?4?$CK?$CJ?$AA?$CK?4?$CK?$AA?$AA?$AA@ 004d4080     share.obj
 0003:000040a4       ??_7TShareStatDlg@@6B@     004d40a4     share.obj
 0003:000041cc       ??_C@_05PDJDMMDN@Users?$AA@ 004d41cc     share.obj
 0003:000041d4       ??_C@_0P@CADGMCHP@All?1done?1trans?$AA@ 004d41d4     share.obj
 0003:000041e8       ??_C@_04EBKMHHBE@Size?$AA@ 004d41e8     share.obj
 0003:000041f0       ??_C@_05DIOAMJFE@Files?$AA@ 004d41f0     share.obj
 0003:000041f8       ??_C@_02JINPPBEP@No?$AA@   004d41f8     share.obj
 0003:000041fc       ??_C@_0O@IGPCJPNP@?$CF?414s?$CI?$CF?410s?$CJ?5?$AA@ 004d41fc     share.obj
 0003:0000420c       ??_C@_0M@NNICDKAC@?$CFd?5?1?5?$CFd?1?5?$CFd?$AA@ 004d420c     share.obj
 0003:0000421c       ??_C@_06IDAFGKAP@?1?$CFdDIR?$AA@ 004d421c     share.obj
 0003:0000422c       ??_7TSaveCommonDlg@@6B@    004d422c     share.obj
 0003:0000434c       ??_C@_0CG@BADLNBMC@same?5file?5name?5exists?4?$AN?6Overwrit@ 004d434c     share.obj
 0003:0000437c       ??_C@_09PBKBMPHO@Attention?$AA@ 004d437c     share.obj
 0003:00004388       ??_C@_09LIEIFGIE@Save?5file?$AA@ 004d4388     share.obj
 0003:00004394       ??_C@_02DPEMFEPD@?3?2?$AA@ 004d4394     share.obj
 0003:00004398       ??_C@_04MDFHGMOB@Next?$AA@ 004d4398     share.obj
 0003:000043a0       ??_C@_06HBIEIEBN@BUTTON?$AA@ 004d43a0     share.obj
 0003:000043a8       ??_C@_04PHIBHIIF@Prev?$AA@ 004d43a8     share.obj
 0003:000043b0       ??_C@_06GCFCNKMP@STATIC?$AA@ 004d43b0     share.obj
 0003:000043b8       ??_C@_0BE@BOKJEHLI@Lump?5?$CI?$CFs?5?1?5?$CFd?5file?$CJ?$AA@ 004d43b8     share.obj
 0003:000043d0       ??_C@_0CG@JBEKNGCL@No?3?5?$CFd?5?1?5?$CFd?5?5filename?3?5?$CC?$CFs?$CC?5?5siz@ 004d43d0     share.obj
 0003:00004400       ??_C@_0BJ@EKGBCNDN@Folder?5?$CICan?8t?5overwrite?$CJ?$AA@ 004d4400     share.obj
 0003:00004420       ??_C@_02HAOIJKIC@?$CFc?$AA@ 004d4420     share.obj
 0003:00004424       ??_C@_03DGBMJIHO@?$CFx?3?$AA@ 004d4424     share.obj
 0003:00004428       ??_C@_0P@GNKLLBDJ@?$CFd?3?$CFs?3?$CFx?$CFx?3?$CFx?3?$AA@ 004d4428     share.obj
 0003:0000443c       ??_C@_0BD@BHEDBLOF@?$CFd?3?$CFs?3?$CFx?$CF08x?3?$CFx?3?$CFs?$AA@ 004d443c     share.obj
 0003:00004454       ??_C@_02MOLJINC@?3?3?$AA@  004d4454     share.obj
 0003:00004458       ??_C@_04MNNLMPCN@tapp?$AA@ 004d4458     Tapp.obj
 0003:00004460       ??_C@_0DK@IDAPMOAG@?$EA?$CI?$CD?$CJCopyright?5?$CIC?$CJ?5H?4Shirouzu?5199@ 004d4460     Tapp.obj
 0003:000044ac       ??_7TApp@@6B@              004d44ac     Tapp.obj
 0003:000044c0       ??_C@_0BC@LKFBFPG@Ctl3dAutoSubclass?$AA@ 004d44c0     Tapp.obj
 0003:000044d8       ??_C@_0O@IBHCLOCD@Ctl3dRegister?$AA@ 004d44d8     Tapp.obj
 0003:000044e8       ??_C@_0M@IPNCOOAG@ctl3d32?4dll?$AA@ 004d44e8     Tapp.obj
 0003:000044f8       ??_C@_0DK@PLLOLDBH@?$EA?$CI?$CD?$CJCopyright?5?$CIC?$CJ?5H?4Shirouzu?5199@ 004d44f8     Tdlg.obj
 0003:00004544       ??_7TDlg@@6B@              004d4544     Tdlg.obj
 0003:00004664       ??_C@_0DL@FAENIMFE@?$EA?$CI?$CD?$CJCopyright?5?$CIC?$CJ?5H?4Shirouzu?5199@ 004d4664     Tlist.obj
 0003:000046b0       ??_7TList@@6B@             004d46b0     Tlist.obj
 0003:000046c0       ??_C@_0DN@DCGPMPPF@?$EA?$CI?$CD?$CJCopyright?5?$CIC?$CJ?5H?4Shirouzu?5199@ 004d46c0     Tregist.obj
 0003:0000470c       ??_C@_03GFPEDOMH@?2?$CFs?$AA@ 004d470c     Tregist.obj
 0003:00004710       ??_C@_0M@ECEHHLIP@software?2?$CFs?$AA@ 004d4710     Tregist.obj
 0003:00004720       ??_C@_0DK@KJIAHILA@?$EA?$CI?$CD?$CJCopyright?5?$CIC?$CJ?5H?4Shirouzu?5199@ 004d4720     Twin.obj
 0003:0000476c       ??_7TWin@@6B@              004d476c     Twin.obj
 0003:00004884       ??_7TSubClass@@6B@         004d4884     Twin.obj
 0003:000049a4       ??_7TSubClassCtl@@6B@      004d49a4     Twin.obj
 0003:00004abc       ??_C@_0P@GHFPNOJB@bad?5allocation?$AA@ 004d4abc     LIBCMTD:new.obj
 0003:00004ad4       ??_7bad_alloc@std@@6B@     004d4ad4     LIBCMTD:new.obj
 0003:00004ae0       ??_C@_1GE@BDAODJCD@?$AAf?$AA?3?$AA?2?$AAd?$AAd?$AA?2?$AAv?$AAc?$AAt?$AAo?$AAo?$AAl?$AAs?$AA?2?$AAc?$AAr?$AAt?$AA_?$AAb?$AAl?$AAd?$AA?2?$AAs?$AAe?$AAl?$AAf?$AA_?$AAx?$AA8?$AA6?$AA?2?$AAc@ 004d4ae0     LIBCMTD:dbgdel.obj
 0003:00004b58       ??_C@_1EO@LHDAJOCM@?$AA_?$AAB?$AAL?$AAO?$AAC?$AAK?$AA_?$AAT?$AAY?$AAP?$AAE?$AA_?$AAI?$AAS?$AA_?$AAV?$AAA?$AAL?$AAI?$AAD?$AA?$CI?$AAp?$AAH?$AAe?$AAa?$AAd?$AA?9?$AA?$DO?$AAn?$AAB?$AAl?$AAo@ 004d4b58     LIBCMTD:dbgdel.obj
 0003:00004bb8       ?ProcessDetach@NativeDll@<CrtImplementationDetails>@@0IB 004d4bb8     LIBCMTD:_trnsctrl_.obj
 0003:00004bbc       ?ProcessAttach@NativeDll@<CrtImplementationDetails>@@0IB 004d4bbc     LIBCMTD:_trnsctrl_.obj
 0003:00004bc0       ?ThreadAttach@NativeDll@<CrtImplementationDetails>@@0IB 004d4bc0     LIBCMTD:_trnsctrl_.obj
 0003:00004bc4       ?ThreadDetach@NativeDll@<CrtImplementationDetails>@@0IB 004d4bc4     LIBCMTD:_trnsctrl_.obj
 0003:00004bc8       ?ProcessVerifier@NativeDll@<CrtImplementationDetails>@@0IB 004d4bc8     LIBCMTD:_trnsctrl_.obj
 0003:00004bd0       ??_7type_info@@6B@         004d4bd0     LIBCMTD:typinfo.obj
 0003:00004bd8       ??_C@_1FE@CEHLKAHD@?$AAi?$AAb?$AAa?$AAs?$AAe?$AA?5?$AA?$DN?$AA?$DN?$AA?5?$AA0?$AA?5?$AA?$HM?$AA?$HM?$AA?5?$AA?$CI?$AA2?$AA?5?$AA?$DM?$AA?$DN?$AA?5?$AAi?$AAb?$AAa?$AAs?$AAe?$AA?5?$AA?$CG?$AA?$CG?$AA?5?$AAi?$AAb?$AAa@ 004d4bd8     LIBCMTD:strtol.obj
 0003:00004c3c       ??_C@_1BA@LOLAMAJG@?$AAs?$AAt?$AAr?$AAt?$AAo?$AAx?$AAl?$AA?$AA@ 004d4c3c     LIBCMTD:strtol.obj
 0003:00004c50       ??_C@_1GA@IPHKKOEI@?$AAf?$AA?3?$AA?2?$AAd?$AAd?$AA?2?$AAv?$AAc?$AAt?$AAo?$AAo?$AAl?$AAs?$AA?2?$AAc?$AAr?$AAt?$AA_?$AAb?$AAl?$AAd?$AA?2?$AAs?$AAe?$AAl?$AAf?$AA_?$AAx?$AA8?$AA6?$AA?2?$AAc@ 004d4c50     LIBCMTD:strtol.obj
 0003:00004cc4       ??_C@_1BK@LAOAACLJ@?$AAn?$AAp?$AAt?$AAr?$AA?5?$AA?$CB?$AA?$DN?$AA?5?$AAN?$AAU?$AAL?$AAL?$AA?$AA@ 004d4cc4     LIBCMTD:strtol.obj
 0003:00004ce4       ??_C@_0DA@HMCPFNKN@f?3?2dd?2vctools?2crt_bld?2self_x86?2c@ 004d4ce4     LIBCMTD:onexit.obj
 0003:00004d20       ??_C@_1GG@CDHAPCGF@?$AAf?$AA?3?$AA?2?$AAd?$AAd?$AA?2?$AAv?$AAc?$AAt?$AAo?$AAo?$AAl?$AAs?$AA?2?$AAc?$AAr?$AAt?$AA_?$AAb?$AAl?$AAd?$AA?2?$AAs?$AAe?$AAl?$AAf?$AA_?$AAx?$AA8?$AA6?$AA?2?$AAc@ 004d4d20     LIBCMTD:handler.obj
 0003:00004d9c       ??_C@_1BC@JLLICHIC@?$AAp?$AAn?$AAh?$AA?5?$AA?$DN?$AA?$DN?$AA?5?$AA0?$AA?$AA@ 004d4d9c     LIBCMTD:handler.obj
 0003:00004de0       ??_7exception@std@@6B@     004d4de0     LIBCMTD:stdexcpt.obj
 0003:00004dec       ??_C@_0BC@EOODALEL@Unknown?5exception?$AA@ 004d4dec     LIBCMTD:stdexcpt.obj
 0003:00004e08       ??_7bad_cast@std@@6B@      004d4e08     LIBCMTD:stdexcpt.obj
 0003:00004e18       ??_7bad_typeid@std@@6B@    004d4e18     LIBCMTD:stdexcpt.obj
 0003:00004e28       ??_7__non_rtti_object@std@@6B@ 004d4e28     LIBCMTD:stdexcpt.obj
 0003:00004e34       ??_C@_0CP@MKONOLCI@f?3?2dd?2vctools?2crt_bld?2self_x86?2c@ 004d4e34     LIBCMTD:mlock.obj
 0003:00004e6c       ??_C@_06PJIGMIJB@Client?$AA@ 004d4e6c     LIBCMTD:dbgheap.obj
 0003:00004e74       ??_C@_06KMEJCCGM@Ignore?$AA@ 004d4e74     LIBCMTD:dbgheap.obj
 0003:00004e7c       ??_C@_03OGPFLFLO@CRT?$AA@  004d4e7c     LIBCMTD:dbgheap.obj
 0003:00004e80       ??_C@_06EFAGIKOH@Normal?$AA@ 004d4e80     LIBCMTD:dbgheap.obj
 0003:00004e88       ??_C@_04HJMOFLDF@Free?$AA@ 004d4e88     LIBCMTD:dbgheap.obj
 0003:00004ea8       ??_C@_0DC@JEMAGEKG@Error?3?5memory?5allocation?3?5bad?5me@ 004d4ea8     LIBCMTD:dbgheap.obj
 0003:00004ee4       ??_C@_0CF@BICKFLAF@Invalid?5allocation?5size?3?5?$CFIu?5byt@ 004d4ee4     LIBCMTD:dbgheap.obj
 0003:00004f10       ??_C@_0CB@CCLOLAHO@Client?5hook?5allocation?5failure?4?6@ 004d4f10     LIBCMTD:dbgheap.obj
 0003:00004f38       ??_C@_0DF@BBEGIFEK@Client?5hook?5allocation?5failure?5a@ 004d4f38     LIBCMTD:dbgheap.obj
 0003:00004f78       ??_C@_1GC@DNJKKEAA@?$AAf?$AA?3?$AA?2?$AAd?$AAd?$AA?2?$AAv?$AAc?$AAt?$AAo?$AAo?$AAl?$AAs?$AA?2?$AAc?$AAr?$AAt?$AA_?$AAb?$AAl?$AAd?$AA?2?$AAs?$AAe?$AAl?$AAf?$AA_?$AAx?$AA8?$AA6?$AA?2?$AAc@ 004d4f78     LIBCMTD:dbgheap.obj
 0003:00004ff0       ??_C@_1CE@LJFEPPMP@?$AA_?$AAC?$AAr?$AAt?$AAC?$AAh?$AAe?$AAc?$AAk?$AAM?$AAe?$AAm?$AAo?$AAr?$AAy?$AA?$CI?$AA?$CJ?$AA?$AA@ 004d4ff0     LIBCMTD:dbgheap.obj
 0003:0000501c       ??_C@_1CC@CKBDKDFF@?$AA_?$AAc?$AAa?$AAl?$AAl?$AAo?$AAc?$AA_?$AAd?$AAb?$AAg?$AA_?$AAi?$AAm?$AAp?$AAl?$AA?$AA@ 004d501c     LIBCMTD:dbgheap.obj
 0003:00005044       ??_C@_1DO@MEOGCGBN@?$AA?$CI?$AA_?$AAH?$AAE?$AAA?$AAP?$AA_?$AAM?$AAA?$AAX?$AAR?$AAE?$AAQ?$AA?5?$AA?1?$AA?5?$AAn?$AAN?$AAu?$AAm?$AA?$CJ?$AA?5?$AA?$DO?$AA?$DN?$AA?5?$AAn?$AAS?$AAi?$AAz?$AAe?$AA?$AA@ 004d5044     LIBCMTD:dbgheap.obj
 0003:00005090       ??_C@_1DE@KOOKLFBB@?$AA_?$AAp?$AAF?$AAi?$AAr?$AAs?$AAt?$AAB?$AAl?$AAo?$AAc?$AAk?$AA?5?$AA?$DN?$AA?$DN?$AA?5?$AAp?$AAO?$AAl?$AAd?$AAB?$AAl?$AAo?$AAc?$AAk?$AA?$AA@ 004d5090     LIBCMTD:dbgheap.obj
 0003:000050d0       ??_C@_1DC@GEFKNOOL@?$AA_?$AAp?$AAL?$AAa?$AAs?$AAt?$AAB?$AAl?$AAo?$AAc?$AAk?$AA?5?$AA?$DN?$AA?$DN?$AA?5?$AAp?$AAO?$AAl?$AAd?$AAB?$AAl?$AAo?$AAc?$AAk?$AA?$AA@ 004d50d0     LIBCMTD:dbgheap.obj
 0003:00005110       ??_C@_1GE@PCKLOLAO@?$AAf?$AAR?$AAe?$AAa?$AAl?$AAl?$AAo?$AAc?$AA?5?$AA?$HM?$AA?$HM?$AA?5?$AA?$CI?$AA?$CB?$AAf?$AAR?$AAe?$AAa?$AAl?$AAl?$AAo?$AAc?$AA?5?$AA?$CG?$AA?$CG?$AA?5?$AAp?$AAN?$AAe?$AAw?$AAB?$AAl@ 004d5110     LIBCMTD:dbgheap.obj
 0003:00005188       ??_C@_0DA@HFBKENN@Error?3?5possible?5heap?5corruption?5@ 004d5188     LIBCMTD:dbgheap.obj
 0003:000051c8       ??_C@_1IK@DCPKDGNH@?$AAp?$AAO?$AAl?$AAd?$AAB?$AAl?$AAo?$AAc?$AAk?$AA?9?$AA?$DO?$AAn?$AAL?$AAi?$AAn?$AAe?$AA?5?$AA?$DN?$AA?$DN?$AA?5?$AAI?$AAG?$AAN?$AAO?$AAR?$AAE?$AA_?$AAL?$AAI?$AAN?$AAE?$AA?5@ 004d51c8     LIBCMTD:dbgheap.obj
 0003:00005270       ??_C@_1EE@GFOPCECE@?$AA_?$AAC?$AAr?$AAt?$AAI?$AAs?$AAV?$AAa?$AAl?$AAi?$AAd?$AAH?$AAe?$AAa?$AAp?$AAP?$AAo?$AAi?$AAn?$AAt?$AAe?$AAr?$AA?$CI?$AAp?$AAU?$AAs?$AAe?$AAr?$AAD?$AAa?$AAt?$AAa@ 004d5270     LIBCMTD:dbgheap.obj
 0003:000052c8       ??_C@_0EM@LGFLMAGJ@The?5Block?5at?50x?$CFp?5was?5allocated?5@ 004d52c8     LIBCMTD:dbgheap.obj
 0003:00005328       ??_C@_0FA@EFEIGJKG@Error?3?5memory?5allocation?3?5bad?5me@ 004d5328     LIBCMTD:dbgheap.obj
 0003:00005388       ??_C@_0ED@GPCPBAGP@Invalid?5allocation?5size?3?5?$CFIu?5byt@ 004d5388     LIBCMTD:dbgheap.obj
 0003:000053d8       ??_C@_0CE@DOFMDOL@Client?5hook?5re?9allocation?5failur@ 004d53d8     LIBCMTD:dbgheap.obj
 0003:00005404       ??_C@_0DI@KKJPDPGM@Client?5hook?5re?9allocation?5failur@ 004d5404     LIBCMTD:dbgheap.obj
 0003:00005448       ??_C@_1BM@OKFKJCEN@?$AA_?$AAr?$AAe?$AAc?$AAa?$AAl?$AAl?$AAo?$AAc?$AA_?$AAd?$AAb?$AAg?$AA?$AA@ 004d5448     LIBCMTD:dbgheap.obj
 0003:0000546c       ??_C@_1DO@GOKJCEHJ@?$AA?$CI?$AA_?$AAH?$AAE?$AAA?$AAP?$AA_?$AAM?$AAA?$AAX?$AAR?$AAE?$AAQ?$AA?5?$AA?1?$AA?5?$AAc?$AAo?$AAu?$AAn?$AAt?$AA?$CJ?$AA?5?$AA?$DO?$AA?$DN?$AA?5?$AAs?$AAi?$AAz?$AAe?$AA?$AA@ 004d546c     LIBCMTD:dbgheap.obj
 0003:000054b8       ??_C@_1BI@HAPNGHDP@?$AA_?$AAe?$AAx?$AAp?$AAa?$AAn?$AAd?$AA_?$AAd?$AAb?$AAg?$AA?$AA@ 004d54b8     LIBCMTD:dbgheap.obj
 0003:000054d4       ??_C@_1CE@CJACEFBA@?$AAp?$AAU?$AAs?$AAe?$AAr?$AAD?$AAa?$AAt?$AAa?$AA?5?$AA?$CB?$AA?$DN?$AA?5?$AAN?$AAU?$AAL?$AAL?$AA?$AA@ 004d54d4     LIBCMTD:dbgheap.obj
 0003:00005500       ??_C@_1CM@MMAADDMD@?$AA_?$AAp?$AAF?$AAi?$AAr?$AAs?$AAt?$AAB?$AAl?$AAo?$AAc?$AAk?$AA?5?$AA?$DN?$AA?$DN?$AA?5?$AAp?$AAH?$AAe?$AAa?$AAd?$AA?$AA@ 004d5500     LIBCMTD:dbgheap.obj
 0003:00005534       ??_C@_1CK@DMAGEMBG@?$AA_?$AAp?$AAL?$AAa?$AAs?$AAt?$AAB?$AAl?$AAo?$AAc?$AAk?$AA?5?$AA?$DN?$AA?$DN?$AA?5?$AAp?$AAH?$AAe?$AAa?$AAd?$AA?$AA@ 004d5534     LIBCMTD:dbgheap.obj
 0003:00005568       ??_C@_1DM@ODCJIDCP@?$AAp?$AAH?$AAe?$AAa?$AAd?$AA?9?$AA?$DO?$AAn?$AAB?$AAl?$AAo?$AAc?$AAk?$AAU?$AAs?$AAe?$AA?5?$AA?$DN?$AA?$DN?$AA?5?$AAn?$AAB?$AAl?$AAo?$AAc?$AAk?$AAU?$AAs?$AAe?$AA?$AA@ 004d5568     LIBCMTD:dbgheap.obj
 0003:000055b0       ??_C@_1HK@HPCBMDFG@?$AAp?$AAH?$AAe?$AAa?$AAd?$AA?9?$AA?$DO?$AAn?$AAL?$AAi?$AAn?$AAe?$AA?5?$AA?$DN?$AA?$DN?$AA?5?$AAI?$AAG?$AAN?$AAO?$AAR?$AAE?$AA_?$AAL?$AAI?$AAN?$AAE?$AA?5?$AA?$CG?$AA?$CG?$AA?5?$AAp@ 004d55b0     LIBCMTD:dbgheap.obj
 0003:00005648       ??_C@_0IG@LEMBDCJK@HEAP?5CORRUPTION?5DETECTED?3?5after?5@ 004d5648     LIBCMTD:dbgheap.obj
 0003:000056e8       ??_C@_0KE@MBMNHHHN@HEAP?5CORRUPTION?5DETECTED?3?5after?5@ 004d56e8     LIBCMTD:dbgheap.obj
 0003:000057b0       ??_C@_0IK@PJCGLBOB@HEAP?5CORRUPTION?5DETECTED?3?5before@ 004d57b0     LIBCMTD:dbgheap.obj
 0003:00005858       ??_C@_0KI@JGFOHMEB@HEAP?5CORRUPTION?5DETECTED?3?5before@ 004d5858     LIBCMTD:dbgheap.obj
 0003:00005924       ??_C@_0BL@KEIPLFAC@Client?5hook?5free?5failure?4?6?$AA@ 004d5924     LIBCMTD:dbgheap.obj
 0003:00005948       ??_C@_0EJ@HEIBCIMJ@The?5Block?5at?50x?$CFp?5was?5allocated?5@ 004d5948     LIBCMTD:dbgheap.obj
 0003:000059a0       ??_C@_1BG@MBKOGDLD@?$AA_?$AAm?$AAs?$AAi?$AAz?$AAe?$AA_?$AAd?$AAb?$AAg?$AA?$AA@ 004d59a0     LIBCMTD:dbgheap.obj
 0003:000059bc       ??_C@_0CI@JMLBEDHJ@?$CFhs?5located?5at?50x?$CFp?5is?5?$CFIu?5bytes@ 004d59bc     LIBCMTD:dbgheap.obj
 0003:000059f0       ??_C@_0EG@DGJMPDBH@?$CFhs?5located?5at?50x?$CFp?5is?5?$CFIu?5bytes@ 004d59f0     LIBCMTD:dbgheap.obj
 0003:00005a48       ??_C@_0IC@BBJIOOJH@HEAP?5CORRUPTION?5DETECTED?3?5on?5top@ 004d5a48     LIBCMTD:dbgheap.obj
 0003:00005ae8       ??_C@_0KA@IHNJJKPL@HEAP?5CORRUPTION?5DETECTED?3?5on?5top@ 004d5ae8     LIBCMTD:dbgheap.obj
 0003:00005ba8       ??_C@_07OHKEFPKJ@DAMAGED?$AA@ 004d5ba8     LIBCMTD:dbgheap.obj
 0003:00005bb4       ??_C@_0CL@HNNNMKMJ@_heapchk?5fails?5with?5unknown?5retu@ 004d5bb4     LIBCMTD:dbgheap.obj
 0003:00005be8       ??_C@_0CC@MFFCHFHO@_heapchk?5fails?5with?5_HEAPBADPTR?4@ 004d5be8     LIBCMTD:dbgheap.obj
 0003:00005c10       ??_C@_0CC@MJGLGBDG@_heapchk?5fails?5with?5_HEAPBADEND?4@ 004d5c10     LIBCMTD:dbgheap.obj
 0003:00005c38       ??_C@_0CD@CPKEAPBD@_heapchk?5fails?5with?5_HEAPBADNODE@ 004d5c38     LIBCMTD:dbgheap.obj
 0003:00005c64       ??_C@_0CE@MKKHMBMK@_heapchk?5fails?5with?5_HEAPBADBEGI@ 004d5c64     LIBCMTD:dbgheap.obj
 0003:00005c90       ??_C@_1BO@GJFDNMNF@?$AA_?$AAC?$AAr?$AAt?$AAS?$AAe?$AAt?$AAD?$AAb?$AAg?$AAF?$AAl?$AAa?$AAg?$AA?$AA@ 004d5c90     LIBCMTD:dbgheap.obj
 0003:00005cb8       ??_C@_1BHO@NNANJNF@?$AA?$CI?$AAf?$AAN?$AAe?$AAw?$AAB?$AAi?$AAt?$AAs?$AA?$DN?$AA?$DN?$AA_?$AAC?$AAR?$AAT?$AAD?$AAB?$AAG?$AA_?$AAR?$AAE?$AAP?$AAO?$AAR?$AAT?$AA_?$AAF?$AAL?$AAA?$AAG?$AA?$CJ?$AA?5@ 004d5cb8     LIBCMTD:dbgheap.obj
 0003:00005e84       ??_C@_1DE@GJCKCKEC@?$AA_?$AAC?$AAr?$AAt?$AAD?$AAo?$AAF?$AAo?$AAr?$AAA?$AAl?$AAl?$AAC?$AAl?$AAi?$AAe?$AAn?$AAt?$AAO?$AAb?$AAj?$AAe?$AAc?$AAt?$AAs?$AA?$AA@ 004d5e84     LIBCMTD:dbgheap.obj
 0003:00005ec4       ??_C@_1BI@CJGCEEDL@?$AAp?$AAf?$AAn?$AA?5?$AA?$CB?$AA?$DN?$AA?5?$AAN?$AAU?$AAL?$AAL?$AA?$AA@ 004d5ec4     LIBCMTD:dbgheap.obj
 0003:00005ee0       ??_C@_0CB@EAAIGELO@Bad?5memory?5block?5found?5at?50x?$CFp?4?6@ 004d5ee0     LIBCMTD:dbgheap.obj
 0003:00005f08       ??_C@_0DP@LEFMFBOD@Bad?5memory?5block?5found?5at?50x?$CFp?4?6@ 004d5f08     LIBCMTD:dbgheap.obj
 0003:00005f54       ??_C@_1CE@NJJKELF@?$AA_?$AAC?$AAr?$AAt?$AAM?$AAe?$AAm?$AAC?$AAh?$AAe?$AAc?$AAk?$AAp?$AAo?$AAi?$AAn?$AAt?$AA?$AA@ 004d5f54     LIBCMTD:dbgheap.obj
 0003:00005f80       ??_C@_1BM@MIMANDHC@?$AAs?$AAt?$AAa?$AAt?$AAe?$AA?5?$AA?$CB?$AA?$DN?$AA?5?$AAN?$AAU?$AAL?$AAL?$AA?$AA@ 004d5f80     LIBCMTD:dbgheap.obj
 0003:00005fa4       ??_C@_1CC@DFPEDFBP@?$AAn?$AAe?$AAw?$AAS?$AAt?$AAa?$AAt?$AAe?$AA?5?$AA?$CB?$AA?$DN?$AA?5?$AAN?$AAU?$AAL?$AAL?$AA?$AA@ 004d5fa4     LIBCMTD:dbgheap.obj
 0003:00005fcc       ??_C@_1CC@DHPFEMMN@?$AAo?$AAl?$AAd?$AAS?$AAt?$AAa?$AAt?$AAe?$AA?5?$AA?$CB?$AA?$DN?$AA?5?$AAN?$AAU?$AAL?$AAL?$AA?$AA@ 004d5fcc     LIBCMTD:dbgheap.obj
 0003:00005ff4       ??_C@_1CE@PDIENACM@?$AA_?$AAC?$AAr?$AAt?$AAM?$AAe?$AAm?$AAD?$AAi?$AAf?$AAf?$AAe?$AAr?$AAe?$AAn?$AAc?$AAe?$AA?$AA@ 004d5ff4     LIBCMTD:dbgheap.obj
 0003:00006020       ??_C@_0BH@GFGKJDCO@Object?5dump?5complete?4?6?$AA@ 004d6020     LIBCMTD:dbgheap.obj
 0003:0000603c       ??_C@_0DA@MDLBNIBM@crt?5block?5at?50x?$CFp?0?5subtype?5?$CFx?0?5?$CF@ 004d603c     LIBCMTD:dbgheap.obj
 0003:00006078       ??_C@_0CH@FAGDDGPN@normal?5block?5at?50x?$CFp?0?5?$CFIu?5bytes?5@ 004d6078     LIBCMTD:dbgheap.obj
 0003:000060a8       ??_C@_0DD@GHNAAKBB@client?5block?5at?50x?$CFp?0?5subtype?5?$CFx@ 004d60a8     LIBCMTD:dbgheap.obj
 0003:000060e8       ??_C@_06PKLGBFGM@?$HL?$CFld?$HN?5?$AA@ 004d60e8     LIBCMTD:dbgheap.obj
 0003:000060f0       ??_C@_0L@JMEFFCCJ@?$CFhs?$CI?$CFd?$CJ?5?3?5?$AA@ 004d60f0     LIBCMTD:dbgheap.obj
 0003:00006100       ??_C@_0BE@OIEFNFL@?$CDFile?5Error?$CD?$CI?$CFd?$CJ?5?3?5?$AA@ 004d6100     LIBCMTD:dbgheap.obj
 0003:00006118       ??_C@_0BE@KCIPKCIA@Dumping?5objects?5?9?$DO?6?$AA@ 004d6118     LIBCMTD:dbgheap.obj
 0003:00006130       ??_C@_0BA@HJBKCELP@?5Data?3?5?$DM?$CFs?$DO?5?$CFs?6?$AA@ 004d6130     LIBCMTD:dbgheap.obj
 0003:00006144       ??_C@_1BI@KALLJECN@?$AA?$CI?$AA?$CK?$AA_?$AAe?$AAr?$AAr?$AAn?$AAo?$AA?$CI?$AA?$CJ?$AA?$CJ?$AA?$AA@ 004d6144     LIBCMTD:dbgheap.obj
 0003:00006160       ??_C@_1CG@LPFIACGM@?$AA_?$AAp?$AAr?$AAi?$AAn?$AAt?$AAM?$AAe?$AAm?$AAB?$AAl?$AAo?$AAc?$AAk?$AAD?$AAa?$AAt?$AAa?$AA?$AA@ 004d6160     LIBCMTD:dbgheap.obj
 0003:00006190       ??_C@_05MKKEDADM@?$CF?42X?5?$AA@ 004d6190     LIBCMTD:dbgheap.obj
 0003:00006198       ??_C@_0BI@JBFPOEJA@Detected?5memory?5leaks?$CB?6?$AA@ 004d6198     LIBCMTD:dbgheap.obj
 0003:000061b4       ??_C@_0BP@DEDHGGGI@Total?5allocations?3?5?$CFId?5bytes?4?6?$AA@ 004d61b4     LIBCMTD:dbgheap.obj
 0003:000061dc       ??_C@_0CB@BLHDAFNE@Largest?5number?5used?3?5?$CFId?5bytes?4?6@ 004d61dc     LIBCMTD:dbgheap.obj
 0003:00006204       ??_C@_0BO@DACNIABB@?$CFId?5bytes?5in?5?$CFId?5?$CFhs?5Blocks?4?6?$AA@ 004d6204     LIBCMTD:dbgheap.obj
 0003:00006228       ??_C@_1CM@MPNIBKGK@?$AA_?$AAC?$AAr?$AAt?$AAM?$AAe?$AAm?$AAD?$AAu?$AAm?$AAp?$AAS?$AAt?$AAa?$AAt?$AAi?$AAs?$AAt?$AAi?$AAc?$AAs?$AA?$AA@ 004d6228     LIBCMTD:dbgheap.obj
 0003:0000625c       ??_C@_1DK@LFLKFPDA@?$AAo?$AAf?$AAf?$AAs?$AAe?$AAt?$AA?5?$AA?$DN?$AA?$DN?$AA?5?$AA0?$AA?5?$AA?$HM?$AA?$HM?$AA?5?$AAo?$AAf?$AAf?$AAs?$AAe?$AAt?$AA?5?$AA?$DM?$AA?5?$AAs?$AAi?$AAz?$AAe?$AA?$AA@ 004d625c     LIBCMTD:dbgheap.obj
 0003:000062a4       ??_C@_1DG@DONCJBBJ@?$AA_?$AAa?$AAl?$AAi?$AAg?$AAn?$AAe?$AAd?$AA_?$AAo?$AAf?$AAf?$AAs?$AAe?$AAt?$AA_?$AAm?$AAa?$AAl?$AAl?$AAo?$AAc?$AA_?$AAd?$AAb?$AAg?$AA?$AA@ 004d62a4     LIBCMTD:dbgheap.obj
 0003:000062e4       ??_C@_1CE@NPMGPNNP@?$AAI?$AAS?$AA_?$AA2?$AA_?$AAP?$AAO?$AAW?$AA_?$AAN?$AA?$CI?$AAa?$AAl?$AAi?$AAg?$AAn?$AA?$CJ?$AA?$AA@ 004d62e4     LIBCMTD:dbgheap.obj
 0003:00006310       ??_C@_1DI@NINIKFFK@?$AA_?$AAa?$AAl?$AAi?$AAg?$AAn?$AAe?$AAd?$AA_?$AAo?$AAf?$AAf?$AAs?$AAe?$AAt?$AA_?$AAr?$AAe?$AAa?$AAl?$AAl?$AAo?$AAc?$AA_?$AAd?$AAb?$AAg?$AA?$AA@ 004d6310     LIBCMTD:dbgheap.obj
 0003:00006354       ??_C@_0DL@PGHMMKNE@Damage?5before?50x?$CFp?5which?5was?5all@ 004d6354     LIBCMTD:dbgheap.obj
 0003:000063a0       ??_C@_0EI@NDNJMAJK@The?5block?5at?50x?$CFp?5was?5not?5alloca@ 004d63a0     LIBCMTD:dbgheap.obj
 0003:000063f8       ??_C@_1DK@MMLHIFFH@?$AA_?$AAa?$AAl?$AAi?$AAg?$AAn?$AAe?$AAd?$AA_?$AAo?$AAf?$AAf?$AAs?$AAe?$AAt?$AA_?$AAr?$AAe?$AAc?$AAa?$AAl?$AAl?$AAo?$AAc?$AA_?$AAd?$AAb?$AAg?$AA?$AA@ 004d63f8     LIBCMTD:dbgheap.obj
 0003:00006440       ??_C@_0EF@PGELACII@The?5block?5at?50x?$CFp?5was?5not?5alloca@ 004d6440     LIBCMTD:dbgheap.obj
 0003:00006494       ??_C@_1CG@CEGMHIMN@?$AA_?$AAa?$AAl?$AAi?$AAg?$AAn?$AAe?$AAd?$AA_?$AAm?$AAs?$AAi?$AAz?$AAe?$AA_?$AAd?$AAb?$AAg?$AA?$AA@ 004d6494     LIBCMTD:dbgheap.obj
 0003:000064c4       ??_C@_1CC@MOBIKHH@?$AAm?$AAe?$AAm?$AAb?$AAl?$AAo?$AAc?$AAk?$AA?5?$AA?$CB?$AA?$DN?$AA?5?$AAN?$AAU?$AAL?$AAL?$AA?$AA@ 004d64c4     LIBCMTD:dbgheap.obj
 0003:000064ec       ??_C@_17LGKOMLJ@?$AA?4?$AA?4?$AA?4?$AA?$AA@ 004d64ec     LIBCMTD:dbgrptw.obj
 0003:000064f8       ??_C@_1CC@CGHMNGDG@?$AAA?$AAs?$AAs?$AAe?$AAr?$AAt?$AAi?$AAo?$AAn?$AA?5?$AAF?$AAa?$AAi?$AAl?$AAe?$AAd?$AA?$AA@ 004d64f8     LIBCMTD:dbgrptw.obj
 0003:00006520       ??_C@_1M@ILHOPKA@?$AAE?$AAr?$AAr?$AAo?$AAr?$AA?$AA@ 004d6520     LIBCMTD:dbgrptw.obj
 0003:00006530       ??_C@_1BA@GLMCNLEM@?$AAW?$AAa?$AAr?$AAn?$AAi?$AAn?$AAg?$AA?$AA@ 004d6530     LIBCMTD:dbgrptw.obj
 0003:00006554       ??_C@_0DA@PCCBBBID@f?3?2dd?2vctools?2crt_bld?2self_x86?2c@ 004d6554     LIBCMTD:dbgrptw.obj
 0003:00006590       ??_C@_1FI@PHIAFFHM@?$AA?$CI?$AA?$CC?$AAT?$AAh?$AAe?$AA?5?$AAh?$AAo?$AAo?$AAk?$AA?5?$AAf?$AAu?$AAn?$AAc?$AAt?$AAi?$AAo?$AAn?$AA?5?$AAi?$AAs?$AA?5?$AAn?$AAo?$AAt?$AA?5?$AAi?$AAn?$AA?5?$AAt?$AAh@ 004d6590     LIBCMTD:dbgrptw.obj
 0003:000065fc       ??_C@_1CG@JBJEFOCM@?$AAp?$AAf?$AAn?$AAN?$AAe?$AAw?$AAH?$AAo?$AAo?$AAk?$AA?5?$AA?$CB?$AA?$DN?$AA?5?$AAN?$AAU?$AAL?$AAL?$AA?$AA@ 004d65fc     LIBCMTD:dbgrptw.obj
 0003:0000662c       ??_C@_1CI@IIHEAKEI@?$AA_?$AAC?$AAr?$AAt?$AAS?$AAe?$AAt?$AAR?$AAe?$AAp?$AAo?$AAr?$AAt?$AAH?$AAo?$AAo?$AAk?$AAW?$AA2?$AA?$AA@ 004d662c     LIBCMTD:dbgrptw.obj
 0003:00006660       ??_C@_1GA@IBJGKIFE@?$AAf?$AA?3?$AA?2?$AAd?$AAd?$AA?2?$AAv?$AAc?$AAt?$AAo?$AAo?$AAl?$AAs?$AA?2?$AAc?$AAr?$AAt?$AA_?$AAb?$AAl?$AAd?$AA?2?$AAs?$AAe?$AAl?$AAf?$AA_?$AAx?$AA8?$AA6?$AA?2?$AAc@ 004d6660     LIBCMTD:dbgrptw.obj
 0003:000066d8       ??_C@_1HI@OFEHGPPC@?$AAm?$AAo?$AAd?$AAe?$AA?5?$AA?$DN?$AA?$DN?$AA?5?$AA_?$AAC?$AAR?$AAT?$AA_?$AAR?$AAP?$AAT?$AAH?$AAO?$AAO?$AAK?$AA_?$AAI?$AAN?$AAS?$AAT?$AAA?$AAL?$AAL?$AA?5?$AA?$HM?$AA?$HM?$AA?5@ 004d66d8     LIBCMTD:dbgrptw.obj
 0003:00006768       ??_C@_1EG@PEOEAKBB@?$AAM?$AAi?$AAc?$AAr?$AAo?$AAs?$AAo?$AAf?$AAt?$AA?5?$AAV?$AAi?$AAs?$AAu?$AAa?$AAl?$AA?5?$AAC?$AA?$CL?$AA?$CL?$AA?5?$AAD?$AAe?$AAb?$AAu?$AAg?$AA?5?$AAL?$AAi?$AAb?$AAr?$AAa@ 004d6768     LIBCMTD:dbgrptw.obj
 0003:000067c0       ??_C@_1FG@BBOLDHGF@?$AA_?$AAC?$AAr?$AAt?$AAD?$AAb?$AAg?$AAR?$AAe?$AAp?$AAo?$AAr?$AAt?$AA?3?$AA?5?$AAS?$AAt?$AAr?$AAi?$AAn?$AAg?$AA?5?$AAt?$AAo?$AAo?$AA?5?$AAl?$AAo?$AAn?$AAg?$AA?5?$AAo@ 004d67c0     LIBCMTD:dbgrptw.obj
 0003:00006828       ??_C@_1JI@EACPGHID@?$AAw?$AAc?$AAs?$AAc?$AAp?$AAy?$AA_?$AAs?$AA?$CI?$AAs?$AAz?$AAO?$AAu?$AAt?$AAM?$AAe?$AAs?$AAs?$AAa?$AAg?$AAe?$AA?0?$AA?5?$AA4?$AA0?$AA9?$AA6?$AA?0?$AA?5?$AAL?$AA?$CC?$AA_@ 004d6828     LIBCMTD:dbgrptw.obj
 0003:000068e0       ??_C@_1KK@MEFMPOLM@?$AAD?$AAe?$AAb?$AAu?$AAg?$AA?5?$AA?$CF?$AAs?$AA?$CB?$AA?6?$AA?6?$AAP?$AAr?$AAo?$AAg?$AAr?$AAa?$AAm?$AA?3?$AA?5?$AA?$CF?$AAs?$AA?$CF?$AAs?$AA?$CF?$AAs?$AA?$CF?$AAs?$AA?$CF?$AAs?$AA?$CF?$AAs@ 004d68e0     LIBCMTD:dbgrptw.obj
 0003:000069ac       ??_C@_1BE@CGCJKGHI@?$AA?6?$AAM?$AAo?$AAd?$AAu?$AAl?$AAe?$AA?3?$AA?5?$AA?$AA@ 004d69ac     LIBCMTD:dbgrptw.obj
 0003:000069c4       ??_C@_1BA@LNHECFIM@?$AA?6?$AAF?$AAi?$AAl?$AAe?$AA?3?$AA?5?$AA?$AA@ 004d69c4     LIBCMTD:dbgrptw.obj
 0003:000069d8       ??_C@_1BA@GLLGCPCK@?$AA?6?$AAL?$AAi?$AAn?$AAe?$AA?3?$AA?5?$AA?$AA@ 004d69d8     LIBCMTD:dbgrptw.obj
 0003:000069ec       ??_C@_15IABLJNFO@?$AA?6?$AA?6?$AA?$AA@ 004d69ec     LIBCMTD:dbgrptw.obj
 0003:000069f4       ??_C@_1BK@PEDCIPMA@?$AAE?$AAx?$AAp?$AAr?$AAe?$AAs?$AAs?$AAi?$AAo?$AAn?$AA?3?$AA?5?$AA?$AA@ 004d69f4     LIBCMTD:dbgrptw.obj
 0003:00006a14       ??_C@_11LOCGONAA@?$AA?$AA@ 004d6a14     LIBCMTD:dbgrptw.obj
 0003:00006a18       ??_C@_1OG@PMPPFHAF@?$AA?6?$AA?6?$AAF?$AAo?$AAr?$AA?5?$AAi?$AAn?$AAf?$AAo?$AAr?$AAm?$AAa?$AAt?$AAi?$AAo?$AAn?$AA?5?$AAo?$AAn?$AA?5?$AAh?$AAo?$AAw?$AA?5?$AAy?$AAo?$AAu?$AAr?$AA?5?$AAp?$AAr@ 004d6a18     LIBCMTD:dbgrptw.obj
 0003:00006b30       ??_C@_1NO@LECLLHOL@?$AAm?$AAe?$AAm?$AAc?$AAp?$AAy?$AA_?$AAs?$AA?$CI?$AAs?$AAz?$AAS?$AAh?$AAo?$AAr?$AAt?$AAP?$AAr?$AAo?$AAg?$AAN?$AAa?$AAm?$AAe?$AA?0?$AA?5?$AAs?$AAi?$AAz?$AAe?$AAo?$AAf@ 004d6b30     LIBCMTD:dbgrptw.obj
 0003:00006c3c       ??_C@_1CO@EAEJAADC@?$AA?$DM?$AAp?$AAr?$AAo?$AAg?$AAr?$AAa?$AAm?$AA?5?$AAn?$AAa?$AAm?$AAe?$AA?5?$AAu?$AAn?$AAk?$AAn?$AAo?$AAw?$AAn?$AA?$DO?$AA?$AA@ 004d6c3c     LIBCMTD:dbgrptw.obj
 0003:00006c78       ??_C@_1GI@DEDNNLCI@?$AAw?$AAc?$AAs?$AAc?$AAp?$AAy?$AA_?$AAs?$AA?$CI?$AAs?$AAz?$AAE?$AAx?$AAe?$AAN?$AAa?$AAm?$AAe?$AA?0?$AA?5?$AA2?$AA6?$AA0?$AA?0?$AA?5?$AAL?$AA?$CC?$AA?$DM?$AAp?$AAr?$AAo?$AAg@ 004d6c78     LIBCMTD:dbgrptw.obj
 0003:00006cf4       ??_C@_1CI@PGJIFDEK@?$AA_?$AA_?$AAc?$AAr?$AAt?$AAM?$AAe?$AAs?$AAs?$AAa?$AAg?$AAe?$AAW?$AAi?$AAn?$AAd?$AAo?$AAw?$AAW?$AA?$AA@ 004d6cf4     LIBCMTD:dbgrptw.obj
 0003:00006d24       __pDestructExceptionObject 004d6d24     LIBCMTD:frame.obj
 0003:00006d28       ??_C@_0O@DPKOEFFH@bad?5exception?$AA@ 004d6d28     LIBCMTD:frame.obj
 0003:00006d3c       ??_7bad_exception@std@@6B@ 004d6d3c     LIBCMTD:frame.obj
 0003:00006d48       ??_C@_0O@NLDKAIKN@EncodePointer?$AA@ 004d6d48     LIBCMTD:tidtable.obj
 0003:00006d58       ??_C@_1BK@DBDEIDLH@?$AAK?$AAE?$AAR?$AAN?$AAE?$AAL?$AA3?$AA2?$AA?4?$AAD?$AAL?$AAL?$AA?$AA@ 004d6d58     LIBCMTD:tidtable.obj
 0003:00006d78       ??_C@_0O@KBPMFGHI@DecodePointer?$AA@ 004d6d78     LIBCMTD:tidtable.obj
 0003:00006d88       ??_C@_0DC@LMJHGCKC@f?3?2dd?2vctools?2crt_bld?2self_x86?2c@ 004d6d88     LIBCMTD:tidtable.obj
 0003:00006dc4       ??_C@_07PEJMOBNF@FlsFree?$AA@ 004d6dc4     LIBCMTD:tidtable.obj
 0003:00006dd0       ??_C@_0M@JCPCPOEF@FlsSetValue?$AA@ 004d6dd0     LIBCMTD:tidtable.obj
 0003:00006de0       ??_C@_0M@GDNOONDI@FlsGetValue?$AA@ 004d6de0     LIBCMTD:tidtable.obj
 0003:00006df0       ??_C@_08KNHFBNJ@FlsAlloc?$AA@ 004d6df0     LIBCMTD:tidtable.obj
 0003:00006e08       ??_C@_1HG@KNCBMCDD@?$AAf?$AA?3?$AA?2?$AAd?$AAd?$AA?2?$AAv?$AAc?$AAt?$AAo?$AAo?$AAl?$AAs?$AA?2?$AAc?$AAr?$AAt?$AA_?$AAb?$AAl?$AAd?$AA?2?$AAs?$AAe?$AAl?$AAf?$AA_?$AAx?$AA8?$AA6?$AA?2?$AAc@ 004d6e08     LIBCMTD:typname.obj
 0003:00006e98       ??_C@_1CI@IDCGDBOP@?$AAp?$AAN?$AAo?$AAd?$AAe?$AA?9?$AA?$DO?$AAn?$AAe?$AAx?$AAt?$AA?5?$AA?$CB?$AA?$DN?$AA?5?$AAN?$AAU?$AAL?$AAL?$AA?$AA@ 004d6e98     LIBCMTD:typname.obj
 0003:00006ec8       ??_C@_1JK@MLBKHELP@?$AAs?$AAt?$AAr?$AAc?$AAp?$AAy?$AA_?$AAs?$AA?5?$AA?$CI?$AA?$CI?$AAc?$AAh?$AAa?$AAr?$AA?5?$AA?$CK?$AA?$CJ?$AA?$CI?$AA?$CI?$AAt?$AAy?$AAp?$AAe?$AA_?$AAi?$AAn?$AAf?$AAo?$AA?5?$AA?$CK?$AA?$CJ@ 004d6ec8     LIBCMTD:typname.obj
 0003:00006f80       ??_C@_1CM@OOICDMK@?$AAt?$AAy?$AAp?$AAe?$AA_?$AAi?$AAn?$AAf?$AAo?$AA?3?$AA?3?$AA_?$AAN?$AAa?$AAm?$AAe?$AA_?$AAb?$AAa?$AAs?$AAe?$AA?$AA@ 004d6f80     LIBCMTD:typname.obj
 0003:00006fb8       ??_C@_1GI@EAJKJPED@?$AAs?$AAt?$AAr?$AAc?$AAp?$AAy?$AA_?$AAs?$AA?5?$AA?$CI?$AAp?$AAT?$AAm?$AAp?$AAT?$AAy?$AAp?$AAe?$AAN?$AAa?$AAm?$AAe?$AA?0?$AA?5?$AAl?$AAe?$AAn?$AA?$CL?$AA2?$AA?0?$AA?5?$AA?$CI@ 004d6fb8     LIBCMTD:typname.obj
 0003:00007034       ??_C@_1DO@OJJLFJPE@?$AAt?$AAy?$AAp?$AAe?$AA_?$AAi?$AAn?$AAf?$AAo?$AA?3?$AA?3?$AA_?$AAN?$AAa?$AAm?$AAe?$AA_?$AAb?$AAa?$AAs?$AAe?$AA_?$AAi?$AAn?$AAt?$AAe?$AAr?$AAn?$AAa?$AAl?$AA?$AA@ 004d7034     LIBCMTD:typname.obj
 0003:00007080       ??_C@_1BA@BMMDEPNE@?$AAs?$AAt?$AAr?$AAt?$AAo?$AAx?$AAq?$AA?$AA@ 004d7080     LIBCMTD:strtoq.obj
 0003:00007098       ??_C@_1GA@GIMEIKLC@?$AAf?$AA?3?$AA?2?$AAd?$AAd?$AA?2?$AAv?$AAc?$AAt?$AAo?$AAo?$AAl?$AAs?$AA?2?$AAc?$AAr?$AAt?$AA_?$AAb?$AAl?$AAd?$AA?2?$AAs?$AAe?$AAl?$AAf?$AA_?$AAx?$AA8?$AA6?$AA?2?$AAc@ 004d7098     LIBCMTD:strtoq.obj
 0003:0000710c       ??_C@_07LCBHPJJN@LC_TIME?$AA@ 004d710c     LIBCMTD:setlocal.obj
 0003:00007118       ??_C@_0L@DLHIECNL@LC_NUMERIC?$AA@ 004d7118     LIBCMTD:setlocal.obj
 0003:00007128       ??_C@_0M@MIENIKLA@LC_MONETARY?$AA@ 004d7128     LIBCMTD:setlocal.obj
 0003:00007138       ??_C@_08EADHIDAD@LC_CTYPE?$AA@ 004d7138     LIBCMTD:setlocal.obj
 0003:00007144       ??_C@_0L@KFJHEKIK@LC_COLLATE?$AA@ 004d7144     LIBCMTD:setlocal.obj
 0003:00007154       ??_C@_06NEFDFEKB@LC_ALL?$AA@ 004d7154     LIBCMTD:setlocal.obj
 0003:00007160       ___lc_category             004d7160     LIBCMTD:setlocal.obj
 0003:00007250       ??_C@_1GE@OLEIGPBJ@?$AAf?$AA?3?$AA?2?$AAd?$AAd?$AA?2?$AAv?$AAc?$AAt?$AAo?$AAo?$AAl?$AAs?$AA?2?$AAc?$AAr?$AAt?$AA_?$AAb?$AAl?$AAd?$AA?2?$AAs?$AAe?$AAl?$AAf?$AA_?$AAx?$AA8?$AA6?$AA?2?$AAc@ 004d7250     LIBCMTD:setlocal.obj
 0003:000072c8       ??_C@_1BKC@GGIENNAK@?$AA?$CI?$AA?$CI?$AAp?$AAt?$AAl?$AAo?$AAc?$AAi?$AA?9?$AA?$DO?$AAl?$AAc?$AA_?$AAc?$AAa?$AAt?$AAe?$AAg?$AAo?$AAr?$AAy?$AA?$FL?$AAc?$AAa?$AAt?$AAe?$AAg?$AAo?$AAr?$AAy?$AA?$FN?$AA?4@ 004d72c8     LIBCMTD:setlocal.obj
 0003:000074c0       ??_C@_1CI@FGIONOJM@?$AA_?$AAc?$AAo?$AAn?$AAf?$AAi?$AAg?$AAt?$AAh?$AAr?$AAe?$AAa?$AAd?$AAl?$AAo?$AAc?$AAa?$AAl?$AAe?$AA?$AA@ 004d74c0     LIBCMTD:setlocal.obj
 0003:000074f0       ??_C@_1GA@LDEGDKD@?$AA?$CI?$AA?$CC?$AAI?$AAn?$AAv?$AAa?$AAl?$AAi?$AAd?$AA?5?$AAp?$AAa?$AAr?$AAa?$AAm?$AAe?$AAt?$AAe?$AAr?$AA?5?$AAf?$AAo?$AAr?$AA?5?$AA_?$AAc?$AAo?$AAn?$AAf?$AAi?$AAg?$AAt@ 004d74f0     LIBCMTD:setlocal.obj
 0003:00007564       ??_C@_0DC@JCPFNMID@f?3?2dd?2vctools?2crt_bld?2self_x86?2c@ 004d7564     LIBCMTD:setlocal.obj
 0003:000075a0       ??_C@_1BE@DBJGBOJC@?$AAs?$AAe?$AAt?$AAl?$AAo?$AAc?$AAa?$AAl?$AAe?$AA?$AA@ 004d75a0     LIBCMTD:setlocal.obj
 0003:000075b8       ??_C@_1FG@OHLFEKMC@?$AAL?$AAC?$AA_?$AAM?$AAI?$AAN?$AA?5?$AA?$DM?$AA?$DN?$AA?5?$AA_?$AAc?$AAa?$AAt?$AAe?$AAg?$AAo?$AAr?$AAy?$AA?5?$AA?$CG?$AA?$CG?$AA?5?$AA_?$AAc?$AAa?$AAt?$AAe?$AAg?$AAo?$AAr?$AAy@ 004d75b8     LIBCMTD:setlocal.obj
 0003:00007620       ??_C@_1IA@PFIKKKFB@?$AAs?$AAt?$AAr?$AAn?$AAc?$AAp?$AAy?$AA_?$AAs?$AA?$CI?$AAl?$AAc?$AAt?$AAe?$AAm?$AAp?$AA?0?$AA?5?$AA?$CI?$AAs?$AAi?$AAz?$AAe?$AAo?$AAf?$AA?$CI?$AAl?$AAc?$AAt?$AAe?$AAm?$AAp@ 004d7620     LIBCMTD:setlocal.obj
 0003:000076bc       ??_C@_1CE@OFNHIOO@?$AA_?$AAs?$AAe?$AAt?$AAl?$AAo?$AAc?$AAa?$AAl?$AAe?$AA_?$AAn?$AAo?$AAl?$AAo?$AAc?$AAk?$AA?$AA@ 004d76bc     LIBCMTD:setlocal.obj
 0003:000076e8       ??_C@_01ICJEACDI@?$DL?$AA@ 004d76e8     LIBCMTD:setlocal.obj
 0003:000076ec       ??_C@_02BALPLPBG@?$DN?$DL?$AA@ 004d76ec     LIBCMTD:setlocal.obj
 0003:000076f0       ??_C@_1GO@JALHLJEH@?$AAs?$AAt?$AAr?$AAc?$AAp?$AAy?$AA_?$AAs?$AA?$CI?$AAp?$AAc?$AAh?$AA?5?$AA?$CL?$AA?5?$AAs?$AAi?$AAz?$AAe?$AAo?$AAf?$AA?$CI?$AAi?$AAn?$AAt?$AA?$CJ?$AA?0?$AA?5?$AAc?$AAc?$AAh?$AA?5@ 004d76f0     LIBCMTD:setlocal.obj
 0003:00007774       ??_C@_1CG@IEFIICPK@?$AA_?$AAs?$AAe?$AAt?$AAl?$AAo?$AAc?$AAa?$AAl?$AAe?$AA_?$AAs?$AAe?$AAt?$AA_?$AAc?$AAa?$AAt?$AA?$AA@ 004d7774     LIBCMTD:setlocal.obj
 0003:000077a4       ??_C@_1DA@GDKKLCLM@?$AAs?$AAt?$AAr?$AAc?$AAa?$AAt?$AA_?$AAs?$AA?$CI?$AAp?$AAc?$AAh?$AA?0?$AA?5?$AAc?$AAc?$AAh?$AA?0?$AA?5?$AA?$CC?$AA?$DL?$AA?$CC?$AA?$CJ?$AA?$AA@ 004d77a4     LIBCMTD:setlocal.obj
 0003:000077e0       ??_C@_1CG@NNFIJLDA@?$AA_?$AAs?$AAe?$AAt?$AAl?$AAo?$AAc?$AAa?$AAl?$AAe?$AA_?$AAg?$AAe?$AAt?$AA_?$AAa?$AAl?$AAl?$AA?$AA@ 004d77e0     LIBCMTD:setlocal.obj
 0003:00007810       ??_C@_01NEMOKFLO@?$DN?$AA@ 004d7810     LIBCMTD:setlocal.obj
 0003:00007818       ??_C@_1FA@MHAOOIBO@?$AAs?$AAt?$AAr?$AAc?$AAp?$AAy?$AA_?$AAs?$AA?$CI?$AAo?$AAu?$AAt?$AAp?$AAu?$AAt?$AA?0?$AA?5?$AAs?$AAi?$AAz?$AAe?$AAI?$AAn?$AAC?$AAh?$AAa?$AAr?$AAs?$AA?0?$AA?5?$AAc?$AAa@ 004d7818     LIBCMTD:setlocal.obj
 0003:00007878       ??_C@_1IA@ONNFOEDA@?$AAs?$AAt?$AAr?$AAn?$AAc?$AAp?$AAy?$AA_?$AAs?$AA?$CI?$AAc?$AAa?$AAc?$AAh?$AAe?$AAi?$AAn?$AA?0?$AA?5?$AAc?$AAa?$AAc?$AAh?$AAe?$AAi?$AAn?$AAS?$AAi?$AAz?$AAe?$AA?0?$AA?5@ 004d7878     LIBCMTD:setlocal.obj
 0003:00007914       ??_C@_01GFHCPBMG@C?$AA@    004d7914     LIBCMTD:setlocal.obj
 0003:00007918       ??_C@_1EG@MOMHKOD@?$AAs?$AAt?$AAr?$AAc?$AAp?$AAy?$AA_?$AAs?$AA?$CI?$AAo?$AAu?$AAt?$AAp?$AAu?$AAt?$AA?0?$AA?5?$AAs?$AAi?$AAz?$AAe?$AAI?$AAn?$AAC?$AAh?$AAa?$AAr?$AAs?$AA?0?$AA?5?$AA?$CC?$AAC@ 004d7918     LIBCMTD:setlocal.obj
 0003:0000796c       ??_C@_1BM@OIIBLEFG@?$AA_?$AAe?$AAx?$AAp?$AAa?$AAn?$AAd?$AAl?$AAo?$AAc?$AAa?$AAl?$AAe?$AA?$AA@ 004d796c     LIBCMTD:setlocal.obj
 0003:00007990       ??_C@_1BGM@IJDLABMC@?$AAs?$AAt?$AAr?$AAc?$AAa?$AAt?$AA_?$AAs?$AA?$CI?$AAo?$AAu?$AAt?$AAs?$AAt?$AAr?$AA?0?$AA?5?$AAs?$AAi?$AAz?$AAe?$AAI?$AAn?$AAB?$AAy?$AAt?$AAe?$AAs?$AA?0?$AA?5?$AA?$CI?$AA?5@ 004d7990     LIBCMTD:setlocal.obj
 0003:00007b44       ??_C@_1BC@PIABMDIP@?$AA_?$AAs?$AAt?$AAr?$AAc?$AAa?$AAt?$AAs?$AA?$AA@ 004d7b44     LIBCMTD:setlocal.obj
 0003:00007b60       ??_C@_1MM@NOPMGFHF@?$AAs?$AAt?$AAr?$AAn?$AAc?$AAp?$AAy?$AA_?$AAs?$AA?$CI?$AAn?$AAa?$AAm?$AAe?$AAs?$AA?9?$AA?$DO?$AAs?$AAz?$AAC?$AAo?$AAd?$AAe?$AAP?$AAa?$AAg?$AAe?$AA?0?$AA?5?$AA?$CI?$AAs?$AAi@ 004d7b60     LIBCMTD:setlocal.obj
 0003:00007c58       ??_C@_1MG@PHNILIAG@?$AAs?$AAt?$AAr?$AAn?$AAc?$AAp?$AAy?$AA_?$AAs?$AA?$CI?$AAn?$AAa?$AAm?$AAe?$AAs?$AA?9?$AA?$DO?$AAs?$AAz?$AAC?$AAo?$AAu?$AAn?$AAt?$AAr?$AAy?$AA?0?$AA?5?$AA?$CI?$AAs?$AAi?$AAz@ 004d7c58     LIBCMTD:setlocal.obj
 0003:00007d48       ??_C@_1MM@BFEECMAF@?$AAs?$AAt?$AAr?$AAn?$AAc?$AAp?$AAy?$AA_?$AAs?$AA?$CI?$AAn?$AAa?$AAm?$AAe?$AAs?$AA?9?$AA?$DO?$AAs?$AAz?$AAL?$AAa?$AAn?$AAg?$AAu?$AAa?$AAg?$AAe?$AA?0?$AA?5?$AA?$CI?$AAs?$AAi@ 004d7d48     LIBCMTD:setlocal.obj
 0003:00007e3c       ??_C@_03EGDHDPFD@_?4?0?$AA@ 004d7e3c     LIBCMTD:setlocal.obj
 0003:00007e40       ??_C@_1NG@FMOPGKGG@?$AAs?$AAt?$AAr?$AAn?$AAc?$AAp?$AAy?$AA_?$AAs?$AA?$CI?$AAn?$AAa?$AAm?$AAe?$AAs?$AA?9?$AA?$DO?$AAs?$AAz?$AAC?$AAo?$AAd?$AAe?$AAP?$AAa?$AAg?$AAe?$AA?0?$AA?5?$AA?$CI?$AAs?$AAi@ 004d7e40     LIBCMTD:setlocal.obj
 0003:00007f40       ??_C@_1BK@CBMMLAGJ@?$AA_?$AA_?$AAl?$AAc?$AA_?$AAs?$AAt?$AAr?$AAt?$AAo?$AAl?$AAc?$AA?$AA@ 004d7f40     LIBCMTD:setlocal.obj
 0003:00007f60       ??_C@_01IDAFKMJL@_?$AA@    004d7f60     LIBCMTD:setlocal.obj
 0003:00007f68       ??_C@_1HC@IBDBLKCB@?$AAs?$AAt?$AAr?$AAc?$AAp?$AAy?$AA_?$AAs?$AA?$CI?$AAl?$AAo?$AAc?$AAa?$AAl?$AAe?$AA?0?$AA?5?$AAs?$AAi?$AAz?$AAe?$AAI?$AAn?$AAB?$AAy?$AAt?$AAe?$AAs?$AA?0?$AA?5?$AA?$CI?$AAc@ 004d7f68     LIBCMTD:setlocal.obj
 0003:00007ff0       ??_C@_1BK@FGDJDEPG@?$AA_?$AA_?$AAl?$AAc?$AA_?$AAl?$AAc?$AAt?$AAo?$AAs?$AAt?$AAr?$AA?$AA@ 004d7ff0     LIBCMTD:setlocal.obj
 0003:00008010       ??_C@_1GC@CHGJNMHG@?$AAf?$AA?3?$AA?2?$AAd?$AAd?$AA?2?$AAv?$AAc?$AAt?$AAo?$AAo?$AAl?$AAs?$AA?2?$AAc?$AAr?$AAt?$AA_?$AAb?$AAl?$AAd?$AA?2?$AAs?$AAe?$AAl?$AAf?$AA_?$AAx?$AA8?$AA6?$AA?2?$AAc@ 004d8010     LIBCMTD:isctype.obj
 0003:00008088       ??_C@_1DC@BPLPALML@?$AA?$CI?$AAu?$AAn?$AAs?$AAi?$AAg?$AAn?$AAe?$AAd?$AA?$CJ?$AA?$CI?$AAc?$AA?5?$AA?$CL?$AA?5?$AA1?$AA?$CJ?$AA?5?$AA?$DM?$AA?$DN?$AA?5?$AA2?$AA5?$AA6?$AA?$AA@ 004d8088     LIBCMTD:isctype.obj
 0003:000080c4       ??_C@_1BG@KCMPBBDK@?$AA_?$AAg?$AAe?$AAt?$AA_?$AAe?$AAr?$AAr?$AAn?$AAo?$AA?$AA@ 004d80c4     LIBCMTD:dosmap.obj
 0003:000080e0       ??_C@_1GA@MFGIMPNL@?$AAf?$AA?3?$AA?2?$AAd?$AAd?$AA?2?$AAv?$AAc?$AAt?$AAo?$AAo?$AAl?$AAs?$AA?2?$AAc?$AAr?$AAt?$AA_?$AAb?$AAl?$AAd?$AA?2?$AAs?$AAe?$AAl?$AAf?$AA_?$AAx?$AA8?$AA6?$AA?2?$AAc@ 004d80e0     LIBCMTD:dosmap.obj
 0003:00008154       ??_C@_1BO@LKEBEKJP@?$AAp?$AAV?$AAa?$AAl?$AAu?$AAe?$AA?5?$AA?$CB?$AA?$DN?$AA?5?$AAN?$AAU?$AAL?$AAL?$AA?$AA@ 004d8154     LIBCMTD:dosmap.obj
 0003:00008178       ??_C@_1BM@INIPHHDD@?$AA_?$AAg?$AAe?$AAt?$AA_?$AAd?$AAo?$AAs?$AAe?$AAr?$AAr?$AAn?$AAo?$AA?$AA@ 004d8178     LIBCMTD:dosmap.obj
 0003:0000819c       ??_C@_0DB@MHMEONEC@f?3?2dd?2vctools?2crt_bld?2self_x86?2c@ 004d819c     LIBCMTD:mbctype.obj
 0003:000081d8       ??_C@_13NOLLCAOD@?$AA?$AA?$AA?$AA@ 004d81d8     LIBCMTD:a_map.obj
 0003:000081e0       ??_C@_1GA@INJGGEBC@?$AAf?$AA?3?$AA?2?$AAd?$AAd?$AA?2?$AAv?$AAc?$AAt?$AAo?$AAo?$AAl?$AAs?$AA?2?$AAc?$AAr?$AAt?$AA_?$AAb?$AAl?$AAd?$AA?2?$AAs?$AAe?$AAl?$AAf?$AA_?$AAx?$AA8?$AA6?$AA?2?$AAc@ 004d81e0     LIBCMTD:a_map.obj
 0003:00008258       ??_C@_1FE@KNPCCODH@?$AA?$CI?$AA?$CC?$AAC?$AAo?$AAr?$AAr?$AAu?$AAp?$AAt?$AAe?$AAd?$AA?5?$AAp?$AAo?$AAi?$AAn?$AAt?$AAe?$AAr?$AA?5?$AAp?$AAa?$AAs?$AAs?$AAe?$AAd?$AA?5?$AAt?$AAo?$AA?5?$AA_?$AAf@ 004d8258     LIBCMTD:a_map.obj
 0003:000082bc       ??_C@_0P@GGKDKEEG@runtime?5error?5?$AA@ 004d82bc     LIBCMTD:crt0msg.obj
 0003:000082d0       ??_C@_0O@MJNIPGOH@TLOSS?5error?$AN?6?$AA@ 004d82d0     LIBCMTD:crt0msg.obj
 0003:000082e0       ??_C@_0N@BONNPDHF@SING?5error?$AN?6?$AA@ 004d82e0     LIBCMTD:crt0msg.obj
 0003:000082f0       ??_C@_0P@MBDAJNE@DOMAIN?5error?$AN?6?$AA@ 004d82f0     LIBCMTD:crt0msg.obj
 0003:00008308       ??_C@_0BFB@HKKMCDOL@R6034?$AN?6An?5application?5has?5made?5a@ 004d8308     LIBCMTD:crt0msg.obj
 0003:000084a0       ??_C@_0PH@EPAFIJ@R6033?$AN?6?9?5Attempt?5to?5use?5MSIL?5cod@ 004d84a0     LIBCMTD:crt0msg.obj
 0003:000085c8       ??_C@_0DD@BKEEABMM@R6032?$AN?6?9?5not?5enough?5space?5for?5lo@ 004d85c8     LIBCMTD:crt0msg.obj
 0003:00008608       ??_C@_0GD@OFKILIED@R6031?$AN?6?9?5Attempt?5to?5initialize?5t@ 004d8608     LIBCMTD:crt0msg.obj
 0003:00008680       ??_C@_0BP@LPMHJOKI@R6030?$AN?6?9?5CRT?5not?5initialized?$AN?6?$AA@ 004d8680     LIBCMTD:crt0msg.obj
 0003:000086a8       ??_C@_0CF@KJDAIALP@R6028?$AN?6?9?5unable?5to?5initialize?5he@ 004d86a8     LIBCMTD:crt0msg.obj
 0003:000086d4       ??_C@_0DF@GAKBPDFP@R6027?$AN?6?9?5not?5enough?5space?5for?5lo@ 004d86d4     LIBCMTD:crt0msg.obj
 0003:00008714       ??_C@_0DF@IBLNNAIG@R6026?$AN?6?9?5not?5enough?5space?5for?5st@ 004d8714     LIBCMTD:crt0msg.obj
 0003:00008754       ??_C@_0CG@IOHKGFNJ@R6025?$AN?6?9?5pure?5virtual?5function?5c@ 004d8754     LIBCMTD:crt0msg.obj
 0003:00008784       ??_C@_0DF@JIJJFJDC@R6024?$AN?6?9?5not?5enough?5space?5for?5_o@ 004d8784     LIBCMTD:crt0msg.obj
 0003:000087c4       ??_C@_0CJ@EGEJHFME@R6019?$AN?6?9?5unable?5to?5open?5console?5@ 004d87c4     LIBCMTD:crt0msg.obj
 0003:000087f8       ??_C@_0CB@GNHNIELH@R6018?$AN?6?9?5unexpected?5heap?5error?$AN?6@ 004d87f8     LIBCMTD:crt0msg.obj
 0003:00008820       ??_C@_0CN@FOLDKNG@R6017?$AN?6?9?5unexpected?5multithread?5@ 004d8820     LIBCMTD:crt0msg.obj
 0003:00008858       ??_C@_0CM@FAHFJNHO@R6016?$AN?6?9?5not?5enough?5space?5for?5th@ 004d8858     LIBCMTD:crt0msg.obj
 0003:00008890       ??_C@_0JG@LBKMGKLD@?$AN?6This?5application?5has?5requested@ 004d8890     LIBCMTD:crt0msg.obj
 0003:00008944       ??_C@_0CM@FLCNIPKK@R6009?$AN?6?9?5not?5enough?5space?5for?5en@ 004d8944     LIBCMTD:crt0msg.obj
 0003:00008978       ??_C@_0CK@KMMJOAPP@R6008?$AN?6?9?5not?5enough?5space?5for?5ar@ 004d8978     LIBCMTD:crt0msg.obj
 0003:000089ac       ??_C@_0CN@LEKKICBM@R6002?$AN?6?9?5floating?5point?5support?5@ 004d89ac     LIBCMTD:crt0msg.obj
 0003:000089e4       ??_C@_0CF@GOGNBNAK@Microsoft?5Visual?5C?$CL?$CL?5Runtime?5Lib@ 004d89e4     LIBCMTD:crt0msg.obj
 0003:00008a10       ??_C@_1KC@JBIKIPNF@?$AAs?$AAt?$AAr?$AAc?$AAa?$AAt?$AA_?$AAs?$AA?$CI?$AAo?$AAu?$AAt?$AAm?$AAs?$AAg?$AA?0?$AA?5?$AA?$CI?$AAs?$AAi?$AAz?$AAe?$AAo?$AAf?$AA?$CI?$AAo?$AAu?$AAt?$AAm?$AAs?$AAg?$AA?$CJ@ 004d8a10     LIBCMTD:crt0msg.obj
 0003:00008ad4       ??_C@_02PHMGELLB@?6?6?$AA@ 004d8ad4     LIBCMTD:crt0msg.obj
 0003:00008ad8       ??_C@_1HO@POLIDBMF@?$AAs?$AAt?$AAr?$AAc?$AAa?$AAt?$AA_?$AAs?$AA?$CI?$AAo?$AAu?$AAt?$AAm?$AAs?$AAg?$AA?0?$AA?5?$AA?$CI?$AAs?$AAi?$AAz?$AAe?$AAo?$AAf?$AA?$CI?$AAo?$AAu?$AAt?$AAm?$AAs?$AAg?$AA?$CJ@ 004d8ad8     LIBCMTD:crt0msg.obj
 0003:00008b70       ??_C@_03KHICJKCI@?4?4?4?$AA@ 004d8b70     LIBCMTD:crt0msg.obj
 0003:00008b78       ??_C@_1HG@CJJGKFHK@?$AAs?$AAt?$AAr?$AAn?$AAc?$AAp?$AAy?$AA_?$AAs?$AA?$CI?$AAp?$AAc?$AAh?$AA?0?$AA?5?$AAp?$AAr?$AAo?$AAg?$AAn?$AAa?$AAm?$AAe?$AA_?$AAs?$AAi?$AAz?$AAe?$AA?5?$AA?9?$AA?5?$AA?$CI@ 004d8b78     LIBCMTD:crt0msg.obj
 0003:00008c08       ??_C@_0BH@DNAGHKFM@?$DMprogram?5name?5unknown?$DO?$AA@ 004d8c08     LIBCMTD:crt0msg.obj
 0003:00008c28       ??_C@_1HI@FOOPEDMH@?$AAs?$AAt?$AAr?$AAc?$AAp?$AAy?$AA_?$AAs?$AA?$CI?$AAp?$AAr?$AAo?$AAg?$AAn?$AAa?$AAm?$AAe?$AA?0?$AA?5?$AAp?$AAr?$AAo?$AAg?$AAn?$AAa?$AAm?$AAe?$AA_?$AAs?$AAi?$AAz?$AAe@ 004d8c28     LIBCMTD:crt0msg.obj
 0003:00008cb8       ??_C@_0BK@OFGJDLJJ@Runtime?5Error?$CB?6?6Program?3?5?$AA@ 004d8cb8     LIBCMTD:crt0msg.obj
 0003:00008cd8       ??_C@_1KM@NKKPELHG@?$AAs?$AAt?$AAr?$AAc?$AAp?$AAy?$AA_?$AAs?$AA?$CI?$AAo?$AAu?$AAt?$AAm?$AAs?$AAg?$AA?0?$AA?5?$AA?$CI?$AAs?$AAi?$AAz?$AAe?$AAo?$AAf?$AA?$CI?$AAo?$AAu?$AAt?$AAm?$AAs?$AAg?$AA?$CJ@ 004d8cd8     LIBCMTD:crt0msg.obj
 0003:00008da8       ??_C@_1BI@EAHMBMEC@?$AA_?$AAN?$AAM?$AAS?$AAG?$AA_?$AAW?$AAR?$AAI?$AAT?$AAE?$AA?$AA@ 004d8da8     LIBCMTD:crt0msg.obj
 0003:00008dc8       ??_C@_1GC@HKOJBOFF@?$AAf?$AA?3?$AA?2?$AAd?$AAd?$AA?2?$AAv?$AAc?$AAt?$AAo?$AAo?$AAl?$AAs?$AA?2?$AAc?$AAr?$AAt?$AA_?$AAb?$AAl?$AAd?$AA?2?$AAs?$AAe?$AAl?$AAf?$AA_?$AAx?$AA8?$AA6?$AA?2?$AAc@ 004d8dc8     LIBCMTD:crt0msg.obj
 0003:00008e40       ??_C@_1GO@NGIGJNHH@?$AAs?$AAt?$AAr?$AAn?$AAc?$AAp?$AAy?$AA_?$AAs?$AA?$CI?$AA?$CK?$AAs?$AAt?$AAr?$AAa?$AAd?$AAd?$AAr?$AAe?$AAs?$AAs?$AA?0?$AA?5?$AAo?$AAu?$AAt?$AAs?$AAi?$AAz?$AAe?$AA?0?$AA?5@ 004d8e40     LIBCMTD:inithelp.obj
 0003:00008ec4       ??_C@_1CA@KHHCPEI@?$AA_?$AA_?$AAg?$AAe?$AAt?$AAl?$AAo?$AAc?$AAa?$AAl?$AAe?$AAi?$AAn?$AAf?$AAo?$AA?$AA@ 004d8ec4     LIBCMTD:inithelp.obj
 0003:00008ef0       ??_C@_1GE@PLPIMDHG@?$AAf?$AA?3?$AA?2?$AAd?$AAd?$AA?2?$AAv?$AAc?$AAt?$AAo?$AAo?$AAl?$AAs?$AA?2?$AAc?$AAr?$AAt?$AA_?$AAb?$AAl?$AAd?$AA?2?$AAs?$AAe?$AAl?$AAf?$AA_?$AAx?$AA8?$AA6?$AA?2?$AAc@ 004d8ef0     LIBCMTD:inithelp.obj
 0003:00008f68       ??_C@_0DC@CFDMMFIG@f?3?2dd?2vctools?2crt_bld?2self_x86?2c@ 004d8f68     LIBCMTD:inithelp.obj
 0003:00008fa4       ??_C@_0P@MIGLKIOC@CorExitProcess?$AA@ 004d8fa4     LIBCMTD:crt0dat.obj
 0003:00008fb8       ??_C@_1BI@BGOHAHKC@?$AAm?$AAs?$AAc?$AAo?$AAr?$AAe?$AAe?$AA?4?$AAd?$AAl?$AAl?$AA?$AA@ 004d8fb8     LIBCMTD:crt0dat.obj
 0003:00008fd4       ??_C@_1CC@CDIPMFPD@?$AA_?$AAw?$AAp?$AAg?$AAm?$AAp?$AAt?$AAr?$AA?5?$AA?$CB?$AA?$DN?$AA?5?$AAN?$AAU?$AAL?$AAL?$AA?$AA@ 004d8fd4     LIBCMTD:crt0dat.obj
 0003:00008ffc       ??_C@_1BK@PNLDCCDP@?$AA_?$AAg?$AAe?$AAt?$AA_?$AAw?$AAp?$AAg?$AAm?$AAp?$AAt?$AAr?$AA?$AA@ 004d8ffc     LIBCMTD:crt0dat.obj
 0003:00009020       ??_C@_1GC@DGCPEDNJ@?$AAf?$AA?3?$AA?2?$AAd?$AAd?$AA?2?$AAv?$AAc?$AAt?$AAo?$AAo?$AAl?$AAs?$AA?2?$AAc?$AAr?$AAt?$AA_?$AAb?$AAl?$AAd?$AA?2?$AAs?$AAe?$AAl?$AAf?$AA_?$AAx?$AA8?$AA6?$AA?2?$AAc@ 004d9020     LIBCMTD:crt0dat.obj
 0003:00009098       ??_C@_1CA@BBNAFCKO@?$AA_?$AAp?$AAg?$AAm?$AAp?$AAt?$AAr?$AA?5?$AA?$CB?$AA?$DN?$AA?5?$AAN?$AAU?$AAL?$AAL?$AA?$AA@ 004d9098     LIBCMTD:crt0dat.obj
 0003:000090c0       ??_C@_1BI@COAAPHJK@?$AA_?$AAg?$AAe?$AAt?$AA_?$AAp?$AAg?$AAm?$AAp?$AAt?$AAr?$AA?$AA@ 004d90c0     LIBCMTD:crt0dat.obj
 0003:000090e0       __XcptActTab               004d90e0     LIBCMTD:winxfltr.obj
 0003:00009170       ??_C@_1DE@MMOGFGHF@?$AAs?$AAt?$AAr?$AAc?$AAp?$AAy?$AA_?$AAs?$AA?$CI?$AA?$CK?$AAe?$AAn?$AAv?$AA?0?$AA?5?$AAc?$AAc?$AAh?$AAa?$AAr?$AAs?$AA?0?$AA?5?$AAp?$AA?$CJ?$AA?$AA@ 004d9170     LIBCMTD:stdenvp.obj
 0003:000091b0       ??_C@_1BC@GHMCNHHL@?$AA_?$AAs?$AAe?$AAt?$AAe?$AAn?$AAv?$AAp?$AA?$AA@ 004d91b0     LIBCMTD:stdenvp.obj
 0003:000091c8       ??_C@_1GC@DGBFLDBN@?$AAf?$AA?3?$AA?2?$AAd?$AAd?$AA?2?$AAv?$AAc?$AAt?$AAo?$AAo?$AAl?$AAs?$AA?2?$AAc?$AAr?$AAt?$AA_?$AAb?$AAl?$AAd?$AA?2?$AAs?$AAe?$AAl?$AAf?$AA_?$AAx?$AA8?$AA6?$AA?2?$AAc@ 004d91c8     LIBCMTD:stdenvp.obj
 0003:00009240       ??_C@_0DB@BMEBJJKP@f?3?2dd?2vctools?2crt_bld?2self_x86?2c@ 004d9240     LIBCMTD:stdenvp.obj
 0003:0000927c       ??_C@_0DB@OEPBJOLC@f?3?2dd?2vctools?2crt_bld?2self_x86?2c@ 004d927c     LIBCMTD:stdargv.obj
 0003:000092b8       ??_C@_0CP@PPLBCJDN@f?3?2dd?2vctools?2crt_bld?2self_x86?2c@ 004d92b8     LIBCMTD:a_env.obj
 0003:000092f0       ??_C@_0DA@NBLAKPEL@f?3?2dd?2vctools?2crt_bld?2self_x86?2c@ 004d92f0     LIBCMTD:ioinit.obj
 0003:00009330       ??_C@_1GE@JDDMFOID@?$AAf?$AA?3?$AA?2?$AAd?$AAd?$AA?2?$AAv?$AAc?$AAt?$AAo?$AAo?$AAl?$AAs?$AA?2?$AAc?$AAr?$AAt?$AA_?$AAb?$AAl?$AAd?$AA?2?$AAs?$AAe?$AAl?$AAf?$AA_?$AAx?$AA8?$AA6?$AA?2?$AAc@ 004d9330     LIBCMTD:heapinit.obj
 0003:000093a8       ??_C@_1BC@DENNNKIM@?$AA_?$AAc?$AAr?$AAt?$AAh?$AAe?$AAa?$AAp?$AA?$AA@ 004d93a8     LIBCMTD:heapinit.obj
 0003:000093c0       ??_C@_1DM@MADKGDLO@?$AA?$CI?$AAL?$AA?$CC?$AAB?$AAu?$AAf?$AAf?$AAe?$AAr?$AA?5?$AAi?$AAs?$AA?5?$AAt?$AAo?$AAo?$AA?5?$AAs?$AAm?$AAa?$AAl?$AAl?$AA?$CC?$AA?5?$AA?$CG?$AA?$CG?$AA?5?$AA0?$AA?$CJ?$AA?$AA@ 004d93c0     LIBCMTD:strcpy_s.obj
 0003:00009408       ??_C@_1CI@HCPHDDLE@?$AAB?$AAu?$AAf?$AAf?$AAe?$AAr?$AA?5?$AAi?$AAs?$AA?5?$AAt?$AAo?$AAo?$AA?5?$AAs?$AAm?$AAa?$AAl?$AAl?$AA?$AA@ 004d9408     LIBCMTD:strcpy_s.obj
 0003:00009438       ??_C@_1CG@OFBJMIGJ@?$AA?$CI?$AA?$CI?$AA?$CI?$AA_?$AAS?$AAr?$AAc?$AA?$CJ?$AA?$CJ?$AA?$CJ?$AA?5?$AA?$CB?$AA?$DN?$AA?5?$AAN?$AAU?$AAL?$AAL?$AA?$AA@ 004d9438     LIBCMTD:strcpy_s.obj
 0003:00009468       ??_C@_1BC@CFJEPFGF@?$AAs?$AAt?$AAr?$AAc?$AAp?$AAy?$AA_?$AAs?$AA?$AA@ 004d9468     LIBCMTD:strcpy_s.obj
 0003:00009480       ??_C@_1GI@BGBNCIMA@?$AAf?$AA?3?$AA?2?$AAd?$AAd?$AA?2?$AAv?$AAc?$AAt?$AAo?$AAo?$AAl?$AAs?$AA?2?$AAc?$AAr?$AAt?$AA_?$AAb?$AAl?$AAd?$AA?2?$AAs?$AAe?$AAl?$AAf?$AA_?$AAx?$AA8?$AA6?$AA?2?$AAc@ 004d9480     LIBCMTD:strcpy_s.obj
 0003:00009500       ??_C@_1FC@NCPEPIBI@?$AA?$CI?$AA?$CI?$AA_?$AAD?$AAs?$AAt?$AA?$CJ?$AA?$CJ?$AA?5?$AA?$CB?$AA?$DN?$AA?5?$AAN?$AAU?$AAL?$AAL?$AA?5?$AA?$CG?$AA?$CG?$AA?5?$AA?$CI?$AA?$CI?$AA_?$AAS?$AAi?$AAz?$AAe?$AAI?$AAn?$AAB?$AAy?$AAt@ 004d9500     LIBCMTD:strcpy_s.obj
 0003:00009564       ??_C@_0BB@NAGLCMLI@Assertion?5Failed?$AA@ 004d9564     LIBCMTD:dbgrpt.obj
 0003:00009578       ??_C@_05NAOIJFC@Error?$AA@ 004d9578     LIBCMTD:dbgrpt.obj
 0003:00009580       ??_C@_07KGMMFLDN@Warning?$AA@ 004d9580     LIBCMTD:dbgrpt.obj
 0003:0000959c       ??_C@_1CG@GNMJDMIO@?$AA_?$AAC?$AAr?$AAt?$AAS?$AAe?$AAt?$AAR?$AAe?$AAp?$AAo?$AAr?$AAt?$AAH?$AAo?$AAo?$AAk?$AA2?$AA?$AA@ 004d959c     LIBCMTD:dbgrpt.obj
 0003:000095cc       ??_C@_0CD@EBCGLDDL@Microsoft?5Visual?5C?$CL?$CL?5Debug?5Libra@ 004d95cc     LIBCMTD:dbgrpt.obj
 0003:000095f8       ??_C@_0CL@EACFGMNB@_CrtDbgReport?3?5String?5too?5long?5o@ 004d95f8     LIBCMTD:dbgrpt.obj
 0003:00009630       ??_C@_1JG@CPKCIOEE@?$AAs?$AAt?$AAr?$AAc?$AAp?$AAy?$AA_?$AAs?$AA?$CI?$AAs?$AAz?$AAO?$AAu?$AAt?$AAM?$AAe?$AAs?$AAs?$AAa?$AAg?$AAe?$AA?0?$AA?5?$AA4?$AA0?$AA9?$AA6?$AA?0?$AA?5?$AA?$CC?$AA_?$AAC@ 004d9630     LIBCMTD:dbgrpt.obj
 0003:000096e8       ??_C@_0FF@CCONDJCB@Debug?5?$CFs?$CB?6?6Program?3?5?$CFs?$CFs?$CFs?$CFs?$CFs?$CFs@ 004d96e8     LIBCMTD:dbgrpt.obj
 0003:00009750       ??_C@_09OFBFHMBK@?6Module?3?5?$AA@ 004d9750     LIBCMTD:dbgrpt.obj
 0003:0000975c       ??_C@_07OPHPPLBG@?6File?3?5?$AA@ 004d975c     LIBCMTD:dbgrpt.obj
 0003:00009768       ??_C@_07DBMPPHDI@?6Line?3?5?$AA@ 004d9768     LIBCMTD:dbgrpt.obj
 0003:00009774       ??_C@_0N@MEECIJGN@Expression?3?5?$AA@ 004d9774     LIBCMTD:dbgrpt.obj
 0003:00009788       ??_C@_0HD@GNBNFCCL@?6?6For?5information?5on?5how?5your?5pr@ 004d9788     LIBCMTD:dbgrpt.obj
 0003:00009818       ??_C@_1GG@DLDHOIGE@?$AAs?$AAt?$AAr?$AAc?$AAp?$AAy?$AA_?$AAs?$AA?$CI?$AAs?$AAz?$AAE?$AAx?$AAe?$AAN?$AAa?$AAm?$AAe?$AA?0?$AA?5?$AA2?$AA6?$AA0?$AA?0?$AA?5?$AA?$CC?$AA?$DM?$AAp?$AAr?$AAo?$AAg?$AAr@ 004d9818     LIBCMTD:dbgrpt.obj
 0003:00009894       ??_C@_1CI@IDOKFLAJ@?$AA_?$AA_?$AAc?$AAr?$AAt?$AAM?$AAe?$AAs?$AAs?$AAa?$AAg?$AAe?$AAW?$AAi?$AAn?$AAd?$AAo?$AAw?$AAA?$AA?$AA@ 004d9894     LIBCMTD:dbgrpt.obj
 0003:000098c4       ??_C@_1BK@JMCGJOCC@?$AA_?$AAe?$AAx?$AAp?$AAa?$AAn?$AAd?$AA_?$AAb?$AAa?$AAs?$AAe?$AA?$AA@ 004d98c4     LIBCMTD:expand.obj
 0003:000098e8       ??_C@_1GA@EBHFLDNH@?$AAf?$AA?3?$AA?2?$AAd?$AAd?$AA?2?$AAv?$AAc?$AAt?$AAo?$AAo?$AAl?$AAs?$AA?2?$AAc?$AAr?$AAt?$AA_?$AAb?$AAl?$AAd?$AA?2?$AAs?$AAe?$AAl?$AAf?$AA_?$AAx?$AA8?$AA6?$AA?2?$AAc@ 004d98e8     LIBCMTD:expand.obj
 0003:0000995c       ??_C@_1BO@KFIJIAEA@?$AAp?$AAB?$AAl?$AAo?$AAc?$AAk?$AA?5?$AA?$CB?$AA?$DN?$AA?5?$AAN?$AAU?$AAL?$AAL?$AA?$AA@ 004d995c     LIBCMTD:expand.obj
 0003:00009980       ??_C@_0BF@PEEJCKGM@HeapQueryInformation?$AA@ 004d9980     LIBCMTD:expand.obj
 0003:0000999c       ??_C@_1BK@MGMFAEKH@?$AAk?$AAe?$AAr?$AAn?$AAe?$AAl?$AA3?$AA2?$AA?4?$AAd?$AAl?$AAl?$AA?$AA@ 004d999c     LIBCMTD:expand.obj
 0003:000099c0       ??_C@_1GA@CMCJKKIB@?$AAf?$AA?3?$AA?2?$AAd?$AAd?$AA?2?$AAv?$AAc?$AAt?$AAo?$AAo?$AAl?$AAs?$AA?2?$AAc?$AAr?$AAt?$AA_?$AAb?$AAl?$AAd?$AA?2?$AAs?$AAe?$AAl?$AAf?$AA_?$AAx?$AA8?$AA6?$AA?2?$AAc@ 004d99c0     LIBCMTD:sbheap.obj
 0003:00009a38       ??_C@_1IC@MOGBEBCE@?$AA?$CI?$AAt?$AAh?$AAr?$AAe?$AAs?$AAh?$AAo?$AAl?$AAd?$AA?5?$AA?$DM?$AA?$DN?$AA?5?$AAM?$AAA?$AAX?$AA_?$AAA?$AAL?$AAL?$AAO?$AAC?$AA_?$AAD?$AAA?$AAT?$AAA?$AA_?$AAS?$AAI?$AAZ@ 004d9a38     LIBCMTD:sbheap.obj
 0003:00009ad4       ??_C@_1CG@BBFCGKBK@?$AA_?$AAs?$AAe?$AAt?$AA_?$AAs?$AAb?$AAh?$AA_?$AAt?$AAh?$AAr?$AAe?$AAs?$AAh?$AAo?$AAl?$AAd?$AA?$AA@ 004d9ad4     LIBCMTD:sbheap.obj
 0003:00009b08       ??_C@_1EC@DACAONFE@?$AAt?$AAh?$AAr?$AAe?$AAs?$AAh?$AAo?$AAl?$AAd?$AA?5?$AA?$DM?$AA?$DN?$AA?5?$AAM?$AAA?$AAX?$AA_?$AAA?$AAL?$AAL?$AAO?$AAC?$AA_?$AAD?$AAA?$AAT?$AAA?$AA_?$AAS?$AAI?$AAZ?$AAE@ 004d9b08     LIBCMTD:sbheap.obj
 0003:00009b58       ??_C@_1BM@GFNECEDD@?$AA_?$AAs?$AAe?$AAt?$AA_?$AAa?$AAm?$AAb?$AAl?$AAk?$AAs?$AAi?$AAz?$AA?$AA@ 004d9b58     LIBCMTD:sbheap.obj
 0003:00009b7c       ??_C@_1DK@BKLENMLC@?$AA0?$AA?5?$AA?$DM?$AA?5?$AAs?$AAi?$AAz?$AAe?$AA?5?$AA?$CG?$AA?$CG?$AA?5?$AAs?$AAi?$AAz?$AAe?$AA?5?$AA?$DM?$AA?$DN?$AA?5?$AAU?$AAI?$AAN?$AAT?$AA_?$AAM?$AAA?$AAX?$AA?$AA@ 004d9b7c     LIBCMTD:sbheap.obj
 0003:00009bc4       ??_C@_1BM@OFBCOJJF@?$AA_?$AAg?$AAe?$AAt?$AA_?$AAa?$AAm?$AAb?$AAl?$AAk?$AAs?$AAi?$AAz?$AA?$AA@ 004d9bc4     LIBCMTD:sbheap.obj
 0003:00009be8       ??_C@_1BM@IELHFPPM@?$AAp?$AAS?$AAi?$AAz?$AAe?$AA?5?$AA?$CB?$AA?$DN?$AA?5?$AAN?$AAU?$AAL?$AAL?$AA?$AA@ 004d9be8     LIBCMTD:sbheap.obj
 0003:00009c0c       ??_C@_1CC@OLIJCKA@?$AA?$CI?$AAs?$AAt?$AAr?$AAi?$AAn?$AAg?$AA?5?$AA?$CB?$AA?$DN?$AA?5?$AAN?$AAU?$AAL?$AAL?$AA?$CJ?$AA?$AA@ 004d9c0c     LIBCMTD:sprintf.obj
 0003:00009c34       ??_C@_1BA@KBJJGFFE@?$AAs?$AAp?$AAr?$AAi?$AAn?$AAt?$AAf?$AA?$AA@ 004d9c34     LIBCMTD:sprintf.obj
 0003:00009c48       ??_C@_1GC@BMNPEKNN@?$AAf?$AA?3?$AA?2?$AAd?$AAd?$AA?2?$AAv?$AAc?$AAt?$AAo?$AAo?$AAl?$AAs?$AA?2?$AAc?$AAr?$AAt?$AA_?$AAb?$AAl?$AAd?$AA?2?$AAs?$AAe?$AAl?$AAf?$AA_?$AAx?$AA8?$AA6?$AA?2?$AAc@ 004d9c48     LIBCMTD:sprintf.obj
 0003:00009cc0       ??_C@_1CC@MGIEJOME@?$AA?$CI?$AAf?$AAo?$AAr?$AAm?$AAa?$AAt?$AA?5?$AA?$CB?$AA?$DN?$AA?5?$AAN?$AAU?$AAL?$AAL?$AA?$CJ?$AA?$AA@ 004d9cc0     LIBCMTD:sprintf.obj
 0003:00009ce8       ??_C@_1NK@LOFHIHFC@?$AAf?$AAM?$AAo?$AAd?$AAe?$AA?5?$AA?$DN?$AA?$DN?$AA?5?$AA_?$AAC?$AAR?$AAT?$AAD?$AAB?$AAG?$AA_?$AAR?$AAE?$AAP?$AAO?$AAR?$AAT?$AA_?$AAM?$AAO?$AAD?$AAE?$AA?5?$AA?$HM?$AA?$HM?$AA?5@ 004d9ce8     LIBCMTD:dbgrptt.obj
 0003:00009df0       ??_C@_1CE@FIHIECNJ@?$AA_?$AAC?$AAr?$AAt?$AAS?$AAe?$AAt?$AAR?$AAe?$AAp?$AAo?$AAr?$AAt?$AAM?$AAo?$AAd?$AAe?$AA?$AA@ 004d9df0     LIBCMTD:dbgrptt.obj
 0003:00009e20       ??_C@_1GC@FIGJJMEN@?$AAf?$AA?3?$AA?2?$AAd?$AAd?$AA?2?$AAv?$AAc?$AAt?$AAo?$AAo?$AAl?$AAs?$AA?2?$AAc?$AAr?$AAt?$AA_?$AAb?$AAl?$AAd?$AA?2?$AAs?$AAe?$AAl?$AAf?$AA_?$AAx?$AA8?$AA6?$AA?2?$AAc@ 004d9e20     LIBCMTD:dbgrptt.obj
 0003:00009e98       ??_C@_1FA@IFFFOLDJ@?$AAn?$AAR?$AAp?$AAt?$AAT?$AAy?$AAp?$AAe?$AA?5?$AA?$DO?$AA?$DN?$AA?5?$AA0?$AA?5?$AA?$CG?$AA?$CG?$AA?5?$AAn?$AAR?$AAp?$AAt?$AAT?$AAy?$AAp?$AAe?$AA?5?$AA?$DM?$AA?5?$AA_?$AAC?$AAR?$AAT@ 004d9e98     LIBCMTD:dbgrptt.obj
 0003:00009ef8       ??_C@_1CE@IKKEDCME@?$AA_?$AAC?$AAr?$AAt?$AAS?$AAe?$AAt?$AAR?$AAe?$AAp?$AAo?$AAr?$AAt?$AAF?$AAi?$AAl?$AAe?$AA?$AA@ 004d9ef8     LIBCMTD:dbgrptt.obj
 0003:00009f28       ??_C@_1HO@PJOFIKFE@?$AA_?$AAC?$AAr?$AAt?$AAD?$AAb?$AAg?$AAR?$AAe?$AAp?$AAo?$AAr?$AAt?$AA?3?$AA?5?$AAS?$AAt?$AAr?$AAi?$AAn?$AAg?$AA?5?$AAt?$AAo?$AAo?$AA?5?$AAl?$AAo?$AAn?$AAg?$AA?5?$AAo@ 004d9f28     LIBCMTD:dbgrptt.obj
 0003:00009fc0       ??_C@_1MC@IGEECMDB@?$AAw?$AAc?$AAs?$AAc?$AAp?$AAy?$AA_?$AAs?$AA?$CI?$AAs?$AAz?$AAO?$AAu?$AAt?$AAM?$AAe?$AAs?$AAs?$AAa?$AAg?$AAe?$AA2?$AA?0?$AA?5?$AA4?$AA0?$AA9?$AA6?$AA?0?$AA?5?$AAL?$AA?$CC@ 004d9fc0     LIBCMTD:dbgrptt.obj
 0003:0000a0a8       ??_C@_1IM@OOKIFKOH@?$AAe?$AA?5?$AA?$DN?$AA?5?$AAm?$AAb?$AAs?$AAt?$AAo?$AAw?$AAc?$AAs?$AA_?$AAs?$AA?$CI?$AA?$CG?$AAr?$AAe?$AAt?$AA?0?$AA?5?$AAs?$AAz?$AAO?$AAu?$AAt?$AAM?$AAe?$AAs?$AAs?$AAa?$AAg@ 004da0a8     LIBCMTD:dbgrptt.obj
 0003:0000a150       ??_C@_1FI@IBIOIHEG@?$AAs?$AAt?$AAr?$AAc?$AAp?$AAy?$AA_?$AAs?$AA?$CI?$AAs?$AAz?$AAO?$AAu?$AAt?$AAM?$AAe?$AAs?$AAs?$AAa?$AAg?$AAe?$AA?0?$AA?5?$AA4?$AA0?$AA9?$AA6?$AA?0?$AA?5?$AAs?$AAz?$AAL@ 004da150     LIBCMTD:dbgrptt.obj
 0003:0000a1bc       ??_C@_0M@IPILFDFN@?$CFs?$CI?$CFd?$CJ?5?3?5?$CFs?$AA@ 004da1bc     LIBCMTD:dbgrptt.obj
 0003:0000a1d0       ??_C@_1EI@LDHJEDO@?$AAs?$AAt?$AAr?$AAc?$AAa?$AAt?$AA_?$AAs?$AA?$CI?$AAs?$AAz?$AAL?$AAi?$AAn?$AAe?$AAM?$AAe?$AAs?$AAs?$AAa?$AAg?$AAe?$AA?0?$AA?5?$AA4?$AA0?$AA9?$AA6?$AA?0?$AA?5?$AA?$CC?$AA?2@ 004da1d0     LIBCMTD:dbgrptt.obj
 0003:0000a228       ??_C@_01LIIJDEN@?$AN?$AA@  004da228     LIBCMTD:dbgrptt.obj
 0003:0000a230       ??_C@_1EI@CACDLAFK@?$AAs?$AAt?$AAr?$AAc?$AAa?$AAt?$AA_?$AAs?$AA?$CI?$AAs?$AAz?$AAL?$AAi?$AAn?$AAe?$AAM?$AAe?$AAs?$AAs?$AAa?$AAg?$AAe?$AA?0?$AA?5?$AA4?$AA0?$AA9?$AA6?$AA?0?$AA?5?$AA?$CC?$AA?2@ 004da230     LIBCMTD:dbgrptt.obj
 0003:0000a288       ??_C@_1FK@NPGBPOFO@?$AAs?$AAt?$AAr?$AAc?$AAa?$AAt?$AA_?$AAs?$AA?$CI?$AAs?$AAz?$AAL?$AAi?$AAn?$AAe?$AAM?$AAe?$AAs?$AAs?$AAa?$AAg?$AAe?$AA?0?$AA?5?$AA4?$AA0?$AA9?$AA6?$AA?0?$AA?5?$AAs?$AAz@ 004da288     LIBCMTD:dbgrptt.obj
 0003:0000a2f8       ??_C@_1KK@GIGAEDMO@?$AAs?$AAt?$AAr?$AAc?$AAp?$AAy?$AA_?$AAs?$AA?$CI?$AAs?$AAz?$AAL?$AAi?$AAn?$AAe?$AAM?$AAe?$AAs?$AAs?$AAa?$AAg?$AAe?$AA?0?$AA?5?$AA4?$AA0?$AA9?$AA6?$AA?0?$AA?5?$AAs?$AAz@ 004da2f8     LIBCMTD:dbgrptt.obj
 0003:0000a3c4       ??_C@_0BC@LAIDCHCH@Assertion?5failed?$CB?$AA@ 004da3c4     LIBCMTD:dbgrptt.obj
 0003:0000a3dc       ??_C@_0BD@CAENFOHP@Assertion?5failed?3?5?$AA@ 004da3dc     LIBCMTD:dbgrptt.obj
 0003:0000a3f8       ??_C@_1JI@GAALPGBM@?$AAs?$AAt?$AAr?$AAc?$AAp?$AAy?$AA_?$AAs?$AA?$CI?$AAs?$AAz?$AAU?$AAs?$AAe?$AAr?$AAM?$AAe?$AAs?$AAs?$AAa?$AAg?$AAe?$AA?0?$AA?5?$AA4?$AA0?$AA9?$AA6?$AA?0?$AA?5?$AA?$CC?$AA_@ 004da3f8     LIBCMTD:dbgrptt.obj
 0003:0000a4b0       ??_C@_01EEMJAFIK@?6?$AA@   004da4b0     LIBCMTD:dbgrptt.obj
 0003:0000a4b4       ??_C@_07BHGABMGB@?0?5Line?5?$AA@ 004da4b4     LIBCMTD:dbgrptt.obj
 0003:0000a4c0       ??_C@_0P@DFJNDPOP@?$DMfile?5unknown?$DO?$AA@ 004da4c0     LIBCMTD:dbgrptt.obj
 0003:0000a4d4       ??_C@_0CG@BNGLOCEO@Second?5Chance?5Assertion?5Failed?3?5@ 004da4d4     LIBCMTD:dbgrptt.obj
 0003:0000a508       ??_C@_1FA@JPHJBHEM@?$AA_?$AAi?$AAt?$AAo?$AAa?$AA_?$AAs?$AA?$CI?$AAn?$AAL?$AAi?$AAn?$AAe?$AA?0?$AA?5?$AAs?$AAz?$AAL?$AAi?$AAn?$AAe?$AAM?$AAe?$AAs?$AAs?$AAa?$AAg?$AAe?$AA?0?$AA?5?$AA4?$AA0@ 004da508     LIBCMTD:dbgrptt.obj
 0003:0000a568       ??_C@_1CA@KHJHLKA@?$AA_?$AAV?$AAC?$AAr?$AAt?$AAD?$AAb?$AAg?$AAR?$AAe?$AAp?$AAo?$AAr?$AAt?$AAA?$AA?$AA@ 004da568     LIBCMTD:dbgrptt.obj
 0003:0000a590       ??_C@_1IE@CPGKIAGP@?$AAw?$AAc?$AAs?$AAt?$AAo?$AAm?$AAb?$AAs?$AA_?$AAs?$AA?$CI?$AA?$CG?$AAr?$AAe?$AAt?$AA?0?$AA?5?$AAs?$AAz?$AAa?$AAO?$AAu?$AAt?$AAM?$AAe?$AAs?$AAs?$AAa?$AAg?$AAe?$AA?0?$AA?5@ 004da590     LIBCMTD:dbgrptt.obj
 0003:0000a630       ??_C@_0DP@GNPEPHJD@_CrtDbgReport?3?5String?5too?5long?5o@ 004da630     LIBCMTD:dbgrptt.obj
 0003:0000a680       ??_C@_1MA@LBAMNNOB@?$AAs?$AAt?$AAr?$AAc?$AAp?$AAy?$AA_?$AAs?$AA?$CI?$AAs?$AAz?$AAO?$AAu?$AAt?$AAM?$AAe?$AAs?$AAs?$AAa?$AAg?$AAe?$AA2?$AA?0?$AA?5?$AA4?$AA0?$AA9?$AA6?$AA?0?$AA?5?$AA?$CC?$AA_@ 004da680     LIBCMTD:dbgrptt.obj
 0003:0000a768       ??_C@_1JC@EOAPFDLN@?$AAw?$AAc?$AAs?$AAt?$AAo?$AAm?$AAb?$AAs?$AA_?$AAs?$AA?$CI?$AA?$CI?$AA?$CI?$AAv?$AAo?$AAi?$AAd?$AA?5?$AA?$CK?$AA?$CJ?$AA0?$AA?$CJ?$AA?0?$AA?5?$AAs?$AAz?$AAO?$AAu?$AAt?$AAM?$AAe?$AAs@ 004da768     LIBCMTD:dbgrptt.obj
 0003:0000a818       ??_C@_1FI@DBAIJPJE@?$AAw?$AAc?$AAs?$AAc?$AAp?$AAy?$AA_?$AAs?$AA?$CI?$AAs?$AAz?$AAO?$AAu?$AAt?$AAM?$AAe?$AAs?$AAs?$AAa?$AAg?$AAe?$AA?0?$AA?5?$AA4?$AA0?$AA9?$AA6?$AA?0?$AA?5?$AAs?$AAz?$AAL@ 004da818     LIBCMTD:dbgrptt.obj
 0003:0000a884       ??_C@_1BI@JIDBEPIG@?$AA?$CF?$AAs?$AA?$CI?$AA?$CF?$AAd?$AA?$CJ?$AA?5?$AA?3?$AA?5?$AA?$CF?$AAs?$AA?$AA@ 004da884     LIBCMTD:dbgrptt.obj
 0003:0000a8a0       ??_C@_1EK@PHCBEDKB@?$AAw?$AAc?$AAs?$AAc?$AAa?$AAt?$AA_?$AAs?$AA?$CI?$AAs?$AAz?$AAL?$AAi?$AAn?$AAe?$AAM?$AAe?$AAs?$AAs?$AAa?$AAg?$AAe?$AA?0?$AA?5?$AA4?$AA0?$AA9?$AA6?$AA?0?$AA?5?$AAL?$AA?$CC@ 004da8a0     LIBCMTD:dbgrptt.obj
 0003:0000a8f8       ??_C@_13CMNBPIDO@?$AA?$AN?$AA?$AA@ 004da8f8     LIBCMTD:dbgrptt.obj
 0003:0000a900       ??_C@_1EK@NMDFGHMF@?$AAw?$AAc?$AAs?$AAc?$AAa?$AAt?$AA_?$AAs?$AA?$CI?$AAs?$AAz?$AAL?$AAi?$AAn?$AAe?$AAM?$AAe?$AAs?$AAs?$AAa?$AAg?$AAe?$AA?0?$AA?5?$AA4?$AA0?$AA9?$AA6?$AA?0?$AA?5?$AAL?$AA?$CC@ 004da900     LIBCMTD:dbgrptt.obj
 0003:0000a958       ??_C@_1FK@HPADHBBD@?$AAw?$AAc?$AAs?$AAc?$AAa?$AAt?$AA_?$AAs?$AA?$CI?$AAs?$AAz?$AAL?$AAi?$AAn?$AAe?$AAM?$AAe?$AAs?$AAs?$AAa?$AAg?$AAe?$AA?0?$AA?5?$AA4?$AA0?$AA9?$AA6?$AA?0?$AA?5?$AAs?$AAz@ 004da958     LIBCMTD:dbgrptt.obj
 0003:0000a9c8       ??_C@_1KO@DGAHENCH@?$AAw?$AAc?$AAs?$AAc?$AAp?$AAy?$AA_?$AAs?$AA?$CI?$AAs?$AAz?$AAL?$AAi?$AAn?$AAe?$AAM?$AAe?$AAs?$AAs?$AAa?$AAg?$AAe?$AA?0?$AA?5?$AA4?$AA0?$AA9?$AA6?$AA?0?$AA?5?$AAs?$AAz@ 004da9c8     LIBCMTD:dbgrptt.obj
 0003:0000aa98       ??_C@_1CE@OJBNHDMO@?$AAA?$AAs?$AAs?$AAe?$AAr?$AAt?$AAi?$AAo?$AAn?$AA?5?$AAf?$AAa?$AAi?$AAl?$AAe?$AAd?$AA?$CB?$AA?$AA@ 004daa98     LIBCMTD:dbgrptt.obj
 0003:0000aac4       ??_C@_1CG@FFFGGODN@?$AAA?$AAs?$AAs?$AAe?$AAr?$AAt?$AAi?$AAo?$AAn?$AA?5?$AAf?$AAa?$AAi?$AAl?$AAe?$AAd?$AA?3?$AA?5?$AA?$AA@ 004daac4     LIBCMTD:dbgrptt.obj
 0003:0000aaf8       ??_C@_1JK@KHFABAEO@?$AAw?$AAc?$AAs?$AAc?$AAp?$AAy?$AA_?$AAs?$AA?$CI?$AAs?$AAz?$AAU?$AAs?$AAe?$AAr?$AAM?$AAe?$AAs?$AAs?$AAa?$AAg?$AAe?$AA?0?$AA?5?$AA4?$AA0?$AA9?$AA6?$AA?0?$AA?5?$AAL?$AA?$CC@ 004daaf8     LIBCMTD:dbgrptt.obj
 0003:0000abb0       ??_C@_13LBAGMAIH@?$AA?6?$AA?$AA@ 004dabb0     LIBCMTD:dbgrptt.obj
 0003:0000abb4       ??_C@_1BA@ELMMDCFC@?$AA?0?$AA?5?$AAL?$AAi?$AAn?$AAe?$AA?5?$AA?$AA@ 004dabb4     LIBCMTD:dbgrptt.obj
 0003:0000abc8       ??_C@_1BO@OCHMLCAG@?$AA?$DM?$AAf?$AAi?$AAl?$AAe?$AA?5?$AAu?$AAn?$AAk?$AAn?$AAo?$AAw?$AAn?$AA?$DO?$AA?$AA@ 004dabc8     LIBCMTD:dbgrptt.obj
 0003:0000abf0       ??_C@_1EM@MJFLEDMB@?$AAS?$AAe?$AAc?$AAo?$AAn?$AAd?$AA?5?$AAC?$AAh?$AAa?$AAn?$AAc?$AAe?$AA?5?$AAA?$AAs?$AAs?$AAe?$AAr?$AAt?$AAi?$AAo?$AAn?$AA?5?$AAF?$AAa?$AAi?$AAl?$AAe?$AAd?$AA?3?$AA?5@ 004dabf0     LIBCMTD:dbgrptt.obj
 0003:0000ac50       ??_C@_1FA@CNLLOMHI@?$AA_?$AAi?$AAt?$AAo?$AAw?$AA_?$AAs?$AA?$CI?$AAn?$AAL?$AAi?$AAn?$AAe?$AA?0?$AA?5?$AAs?$AAz?$AAL?$AAi?$AAn?$AAe?$AAM?$AAe?$AAs?$AAs?$AAa?$AAg?$AAe?$AA?0?$AA?5?$AA4?$AA0@ 004dac50     LIBCMTD:dbgrptt.obj
 0003:0000acb0       ??_C@_1CA@HPALHDOD@?$AA_?$AAV?$AAC?$AAr?$AAt?$AAD?$AAb?$AAg?$AAR?$AAe?$AAp?$AAo?$AAr?$AAt?$AAW?$AA?$AA@ 004dacb0     LIBCMTD:dbgrptt.obj
 0003:0000acd8       ??_C@_1O@EJLDHPPL@?$AAs?$AAi?$AAg?$AAn?$AAa?$AAl?$AA?$AA@ 004dacd8     LIBCMTD:winsig.obj
 0003:0000ace8       ??_C@_1GA@DBECNFG@?$AAf?$AA?3?$AA?2?$AAd?$AAd?$AA?2?$AAv?$AAc?$AAt?$AAo?$AAo?$AAl?$AAs?$AA?2?$AAc?$AAr?$AAt?$AA_?$AAb?$AAl?$AAd?$AA?2?$AAs?$AAe?$AAl?$AAf?$AA_?$AAx?$AA8?$AA6?$AA?2?$AAc@ 004dace8     LIBCMTD:winsig.obj
 0003:0000ad5c       ??_C@_1DO@MLNEDKGB@?$AA?$CI?$AA?$CC?$AAI?$AAn?$AAv?$AAa?$AAl?$AAi?$AAd?$AA?5?$AAs?$AAi?$AAg?$AAn?$AAa?$AAl?$AA?5?$AAo?$AAr?$AA?5?$AAe?$AAr?$AAr?$AAo?$AAr?$AA?$CC?$AA?0?$AA?5?$AA0?$AA?$CJ?$AA?$AA@ 004dad5c     LIBCMTD:winsig.obj
 0003:0000ada8       ??_C@_0DA@ELJOOIJF@f?3?2dd?2vctools?2crt_bld?2self_x86?2c@ 004dada8     LIBCMTD:winsig.obj
 0003:0000ade4       ??_C@_1M@DMJEIKHL@?$AAr?$AAa?$AAi?$AAs?$AAe?$AA?$AA@ 004dade4     LIBCMTD:winsig.obj
 0003:0000adf4       ??_C@_0BI@DFKBFLJE@GetProcessWindowStation?$AA@ 004dadf4     LIBCMTD:crtmboxw.obj
 0003:0000ae10       ??_C@_0BK@DEKFELLI@GetUserObjectInformationW?$AA@ 004dae10     LIBCMTD:crtmboxw.obj
 0003:0000ae30       ??_C@_0BD@HHGDFDBJ@GetLastActivePopup?$AA@ 004dae30     LIBCMTD:crtmboxw.obj
 0003:0000ae48       ??_C@_0BA@HNOPNCHB@GetActiveWindow?$AA@ 004dae48     LIBCMTD:crtmboxw.obj
 0003:0000ae5c       ??_C@_0M@DLDCCGNP@MessageBoxW?$AA@ 004dae5c     LIBCMTD:crtmboxw.obj
 0003:0000ae6c       ??_C@_1BG@GOEBHBDC@?$AAU?$AAS?$AAE?$AAR?$AA3?$AA2?$AA?4?$AAD?$AAL?$AAL?$AA?$AA@ 004dae6c     LIBCMTD:crtmboxw.obj
 0003:0000ae88       ??_C@_1BE@BMIJMLDD@?$AA_?$AAs?$AAw?$AAp?$AAr?$AAi?$AAn?$AAt?$AAf?$AA?$AA@ 004dae88     LIBCMTD:swprintf.obj
 0003:0000aea0       ??_C@_1GE@DKGHLBLP@?$AAf?$AA?3?$AA?2?$AAd?$AAd?$AA?2?$AAv?$AAc?$AAt?$AAo?$AAo?$AAl?$AAs?$AA?2?$AAc?$AAr?$AAt?$AA_?$AAb?$AAl?$AAd?$AA?2?$AAs?$AAe?$AAl?$AAf?$AA_?$AAx?$AA8?$AA6?$AA?2?$AAc@ 004daea0     LIBCMTD:swprintf.obj
 0003:0000af18       ??_C@_1CK@DDKKOLAN@?$AAs?$AAi?$AAz?$AAe?$AAI?$AAn?$AAB?$AAy?$AAt?$AAe?$AAs?$AA?5?$AA?$DO?$AA?$DN?$AA?5?$AAc?$AAo?$AAu?$AAn?$AAt?$AA?$AA@ 004daf18     LIBCMTD:memcpy_s.obj
 0003:0000af4c       ??_C@_1BI@DCHLDCPP@?$AAs?$AAr?$AAc?$AA?5?$AA?$CB?$AA?$DN?$AA?5?$AAN?$AAU?$AAL?$AAL?$AA?$AA@ 004daf4c     LIBCMTD:memcpy_s.obj
 0003:0000af68       ??_C@_1BC@GKHDJMGB@?$AAm?$AAe?$AAm?$AAc?$AAp?$AAy?$AA_?$AAs?$AA?$AA@ 004daf68     LIBCMTD:memcpy_s.obj
 0003:0000af80       ??_C@_1GE@NEOPGGBM@?$AAf?$AA?3?$AA?2?$AAd?$AAd?$AA?2?$AAv?$AAc?$AAt?$AAo?$AAo?$AAl?$AAs?$AA?2?$AAc?$AAr?$AAt?$AA_?$AAb?$AAl?$AAd?$AA?2?$AAs?$AAe?$AAl?$AAf?$AA_?$AAx?$AA8?$AA6?$AA?2?$AAc@ 004daf80     LIBCMTD:memcpy_s.obj
 0003:0000aff8       ??_C@_1BI@GKKCBDMD@?$AAd?$AAs?$AAt?$AA?5?$AA?$CB?$AA?$DN?$AA?5?$AAN?$AAU?$AAL?$AAL?$AA?$AA@ 004daff8     LIBCMTD:memcpy_s.obj
 0003:0000b014       ??_C@_1BC@KIONAFPO@?$AAw?$AAc?$AAs?$AAc?$AAp?$AAy?$AA_?$AAs?$AA?$AA@ 004db014     LIBCMTD:wcscpy_s.obj
 0003:0000b030       ??_C@_1FC@PFMLEHKI@?$AA?$CI?$AA?$CI?$AA_?$AAD?$AAs?$AAt?$AA?$CJ?$AA?$CJ?$AA?5?$AA?$CB?$AA?$DN?$AA?5?$AAN?$AAU?$AAL?$AAL?$AA?5?$AA?$CG?$AA?$CG?$AA?5?$AA?$CI?$AA?$CI?$AA_?$AAS?$AAi?$AAz?$AAe?$AAI?$AAn?$AAW?$AAo?$AAr@ 004db030     LIBCMTD:wcscpy_s.obj
 0003:0000b094       ??_C@_0BK@CFCOFLF@?5Complete?5Object?5Locator?8?$AA@ 004db094     LIBCMTD:undname.obj
 0003:0000b0b4       ??_C@_0BN@MECKDCOJ@?5Class?5Hierarchy?5Descriptor?8?$AA@ 004db0b4     LIBCMTD:undname.obj
 0003:0000b0d8       ??_C@_0BD@LGICGFMM@?5Base?5Class?5Array?8?$AA@ 004db0d8     LIBCMTD:undname.obj
 0003:0000b0f0       ??_C@_0BM@LDKODKLH@?5Base?5Class?5Descriptor?5at?5?$CI?$AA@ 004db0f0     LIBCMTD:undname.obj
 0003:0000b114       ??_C@_0BC@DAFEJGAK@?5Type?5Descriptor?8?$AA@ 004db114     LIBCMTD:undname.obj
 0003:0000b12c       ??_C@_0BM@PMGGMLDN@?$GAlocal?5static?5thread?5guard?8?$AA@ 004db12c     LIBCMTD:undname.obj
 0003:0000b150       ??_C@_0CL@FGIJHLCE@?$GAmanaged?5vector?5copy?5constructor@ 004db150     LIBCMTD:undname.obj
 0003:0000b184       ??_C@_0CJ@GJELGAMM@?$GAvector?5vbase?5copy?5constructor?5i@ 004db184     LIBCMTD:undname.obj
 0003:0000b1b8       ??_C@_0CD@CGAJBKEJ@?$GAvector?5copy?5constructor?5iterato@ 004db1b8     LIBCMTD:undname.obj
 0003:0000b1e4       ??_C@_0CB@PDBIFEP@?$GAdynamic?5atexit?5destructor?5for?5?8@ 004db1e4     LIBCMTD:undname.obj
 0003:0000b20c       ??_C@_0BL@CLIPGLGB@?$GAdynamic?5initializer?5for?5?8?$AA@ 004db20c     LIBCMTD:undname.obj
 0003:0000b22c       ??_C@_0CM@FCBBDIGB@?$GAeh?5vector?5vbase?5copy?5constructo@ 004db22c     LIBCMTD:undname.obj
 0003:0000b260       ??_C@_0CG@HLDDJMAG@?$GAeh?5vector?5copy?5constructor?5iter@ 004db260     LIBCMTD:undname.obj
 0003:0000b290       ??_C@_0CF@IMGKMJNO@?$GAmanaged?5vector?5destructor?5itera@ 004db290     LIBCMTD:undname.obj
 0003:0000b2bc       ??_C@_0CG@CFDHKGGD@?$GAmanaged?5vector?5constructor?5iter@ 004db2bc     LIBCMTD:undname.obj
 0003:0000b2ec       ??_C@_0BN@CKNJLHMB@?$GAplacement?5delete?$FL?$FN?5closure?8?$AA@ 004db2ec     LIBCMTD:undname.obj
 0003:0000b310       ??_C@_0BL@CNOONJFP@?$GAplacement?5delete?5closure?8?$AA@ 004db310     LIBCMTD:undname.obj
 0003:0000b330       ??_C@_0P@HJKNJFNN@?$GAomni?5callsig?8?$AA@ 004db330     LIBCMTD:undname.obj
 0003:0000b344       ??_C@_09LBNFPBCA@?5delete?$FL?$FN?$AA@ 004db344     LIBCMTD:undname.obj
 0003:0000b350       ??_C@_06FHBGPFGH@?5new?$FL?$FN?$AA@ 004db350     LIBCMTD:undname.obj
 0003:0000b358       ??_C@_0CE@IIHCMGGL@?$GAlocal?5vftable?5constructor?5closu@ 004db358     LIBCMTD:undname.obj
 0003:0000b384       ??_C@_0BA@KKLDJDLB@?$GAlocal?5vftable?8?$AA@ 004db384     LIBCMTD:undname.obj
 0003:0000b398       ??_C@_05KHLCHHI@?$GARTTI?$AA@ 004db398     LIBCMTD:undname.obj
 0003:0000b3a0       ??_C@_03KLGMFNMG@?$GAEH?$AA@ 004db3a0     LIBCMTD:undname.obj
 0003:0000b3a4       ??_C@_0BA@KBCDOMBN@?$GAudt?5returning?8?$AA@ 004db3a4     LIBCMTD:undname.obj
 0003:0000b3b8       ??_C@_0BL@LLKPOHJI@?$GAcopy?5constructor?5closure?8?$AA@ 004db3b8     LIBCMTD:undname.obj
 0003:0000b3d8       ??_C@_0CH@OOJPLCPH@?$GAeh?5vector?5vbase?5constructor?5ite@ 004db3d8     LIBCMTD:undname.obj
 0003:0000b408       ??_C@_0CA@GCEOPDGL@?$GAeh?5vector?5destructor?5iterator?8?$AA@ 004db408     LIBCMTD:undname.obj
 0003:0000b430       ??_C@_0CB@JONCMFFK@?$GAeh?5vector?5constructor?5iterator?8@ 004db430     LIBCMTD:undname.obj
 0003:0000b458       ??_C@_0BL@NILFHHPC@?$GAvirtual?5displacement?5map?8?$AA@ 004db458     LIBCMTD:undname.obj
 0003:0000b478       ??_C@_0CE@IKBNEHA@?$GAvector?5vbase?5constructor?5iterat@ 004db478     LIBCMTD:undname.obj
 0003:0000b4a4       ??_C@_0BN@LFPFMEDL@?$GAvector?5destructor?5iterator?8?$AA@ 004db4a4     LIBCMTD:undname.obj
 0003:0000b4c8       ??_C@_0BO@PFGOCPJJ@?$GAvector?5constructor?5iterator?8?$AA@ 004db4c8     LIBCMTD:undname.obj
 0003:0000b4ec       ??_C@_0BN@IMDCHIKM@?$GAscalar?5deleting?5destructor?8?$AA@ 004db4ec     LIBCMTD:undname.obj
 0003:0000b510       ??_C@_0BO@OBMKPJIG@?$GAdefault?5constructor?5closure?8?$AA@ 004db510     LIBCMTD:undname.obj
 0003:0000b534       ??_C@_0BN@DEGPLNFK@?$GAvector?5deleting?5destructor?8?$AA@ 004db534     LIBCMTD:undname.obj
 0003:0000b558       ??_C@_0BD@JDLKDPAB@?$GAvbase?5destructor?8?$AA@ 004db558     LIBCMTD:undname.obj
 0003:0000b570       ??_C@_08OBABFOLI@?$GAstring?8?$AA@ 004db570     LIBCMTD:undname.obj
 0003:0000b57c       ??_C@_0BF@KDPPACIK@?$GAlocal?5static?5guard?8?$AA@ 004db57c     LIBCMTD:undname.obj
 0003:0000b598       ??_C@_08LLFFHHDJ@?$GAtypeof?8?$AA@ 004db598     LIBCMTD:undname.obj
 0003:0000b5a4       ??_C@_07FEEIOKP@?$GAvcall?8?$AA@ 004db5a4     LIBCMTD:undname.obj
 0003:0000b5b0       ??_C@_09BLBHBJP@?$GAvbtable?8?$AA@ 004db5b0     LIBCMTD:undname.obj
 0003:0000b5bc       ??_C@_09IFPLHPGF@?$GAvftable?8?$AA@ 004db5bc     LIBCMTD:undname.obj
 0003:0000b5c8       ??_C@_02MHEGNOJ@?$FO?$DN?$AA@ 004db5c8     LIBCMTD:undname.obj
 0003:0000b5cc       ??_C@_02DHLNPPGH@?$HM?$DN?$AA@ 004db5cc     LIBCMTD:undname.obj
 0003:0000b5d0       ??_C@_02FGJGFEAB@?$CG?$DN?$AA@ 004db5d0     LIBCMTD:undname.obj
 0003:0000b5d4       ??_C@_03CDNPDDLA@?$DM?$DM?$DN?$AA@ 004db5d4     LIBCMTD:undname.obj
 0003:0000b5d8       ??_C@_03IKFCCPFF@?$DO?$DO?$DN?$AA@ 004db5d8     LIBCMTD:undname.obj
 0003:0000b5dc       ??_C@_02FENAOKFI@?$CF?$DN?$AA@ 004db5dc     LIBCMTD:undname.obj
 0003:0000b5e0       ??_C@_02FJEHGPIO@?1?$DN?$AA@ 004db5e0     LIBCMTD:undname.obj
 0003:0000b5e4       ??_C@_02FKMDLLOA@?9?$DN?$AA@ 004db5e4     LIBCMTD:undname.obj
 0003:0000b5e8       ??_C@_02FOEOMHFC@?$CL?$DN?$AA@ 004db5e8     LIBCMTD:undname.obj
 0003:0000b5ec       ??_C@_02FPIMKNGF@?$CK?$DN?$AA@ 004db5ec     LIBCMTD:undname.obj
 0003:0000b5f0       ??_C@_02NONPIBCD@?$HM?$HM?$AA@ 004db5f0     LIBCMTD:undname.obj
 0003:0000b5f4       ??_C@_02PPKAJPJL@?$CG?$CG?$AA@ 004db5f4     LIBCMTD:undname.obj
 0003:0000b5f8       ??_C@_01DNKMNLPK@?$HM?$AA@ 004db5f8     LIBCMTD:undname.obj
 0003:0000b5fc       ??_C@_01JKBOJNNK@?$FO?$AA@ 004db5fc     LIBCMTD:undname.obj
 0003:0000b600       ??_C@_01PJKLJHI@?$HO?$AA@  004db600     LIBCMTD:undname.obj
 0003:0000b604       ??_C@_02HCKGKOFO@?$CI?$CJ?$AA@ 004db604     LIBCMTD:undname.obj
 0003:0000b608       ??_C@_01IHBHIGKO@?0?$AA@   004db608     LIBCMTD:undname.obj
 0003:0000b60c       ??_C@_02EEKDKGMJ@?$DO?$DN?$AA@ 004db60c     LIBCMTD:undname.obj
 0003:0000b610       ??_C@_02EHCHHCKH@?$DM?$DN?$AA@ 004db610     LIBCMTD:undname.obj
 0003:0000b614       ??_C@_01MNNFJEPP@?$DM?$AA@ 004db614     LIBCMTD:undname.obj
 0003:0000b618       ??_C@_01FGNFDNOH@?$CF?$AA@ 004db618     LIBCMTD:undname.obj
 0003:0000b61c       ??_C@_03MNHNFDLC@?9?$DO?$CK?$AA@ 004db61c     LIBCMTD:undname.obj
 0003:0000b620       ??_C@_01HNPIGOCE@?$CG?$AA@ 004db620     LIBCMTD:undname.obj
 0003:0000b624       ??_C@_01MIFGBAGJ@?$CL?$AA@ 004db624     LIBCMTD:undname.obj
 0003:0000b628       ??_C@_01JOAMLHOP@?9?$AA@   004db628     LIBCMTD:undname.obj
 0003:0000b62c       ??_C@_02BAABKJLB@?9?9?$AA@ 004db62c     LIBCMTD:undname.obj
 0003:0000b630       ??_C@_02ECNGHCIF@?$CL?$CL?$AA@ 004db630     LIBCMTD:undname.obj
 0003:0000b634       ??_C@_02HBOOOICD@?9?$DO?$AA@ 004db634     LIBCMTD:undname.obj
 0003:0000b638       ??_C@_08LHJFAFGD@operator?$AA@ 004db638     LIBCMTD:undname.obj
 0003:0000b644       ??_C@_02GPECMEKF@?$FL?$FN?$AA@ 004db644     LIBCMTD:undname.obj
 0003:0000b648       ??_C@_02FDNJECIE@?$CB?$DN?$AA@ 004db648     LIBCMTD:undname.obj
 0003:0000b64c       ??_C@_02EGOFBIJA@?$DN?$DN?$AA@ 004db64c     LIBCMTD:undname.obj
 0003:0000b650       ??_C@_01DCLJPIOD@?$CB?$AA@ 004db650     LIBCMTD:undname.obj
 0003:0000b654       ??_C@_02FODMEDOG@?$DM?$DM?$AA@ 004db654     LIBCMTD:undname.obj
 0003:0000b658       ??_C@_02GPIOPFAK@?$DO?$DO?$AA@ 004db658     LIBCMTD:undname.obj
 0003:0000b65c       ??_C@_07FPCDHGMM@?5delete?$AA@ 004db65c     LIBCMTD:undname.obj
 0003:0000b668       ??_C@_04NIHEBCM@?5new?$AA@ 004db668     LIBCMTD:undname.obj
 0003:0000b670       ??_C@_0M@GFIIJFMG@__unaligned?$AA@ 004db670     LIBCMTD:undname.obj
 0003:0000b680       ??_C@_0L@PILCLIHE@__restrict?$AA@ 004db680     LIBCMTD:undname.obj
 0003:0000b690       ??_C@_07JOMMBBKO@__ptr64?$AA@ 004db690     LIBCMTD:undname.obj
 0003:0000b69c       ??_C@_09HIJEGCPM@__clrcall?$AA@ 004db69c     LIBCMTD:undname.obj
 0003:0000b6a8       ??_C@_0L@JMKHOMEK@__fastcall?$AA@ 004db6a8     LIBCMTD:undname.obj
 0003:0000b6b8       ??_C@_0L@NPHFGOKO@__thiscall?$AA@ 004db6b8     LIBCMTD:undname.obj
 0003:0000b6c8       ??_C@_09IFJBGAPI@__stdcall?$AA@ 004db6c8     LIBCMTD:undname.obj
 0003:0000b6d4       ??_C@_08GHMPAG@__pascal?$AA@ 004db6d4     LIBCMTD:undname.obj
 0003:0000b6e0       ??_C@_07KOLFKCDI@__cdecl?$AA@ 004db6e0     LIBCMTD:undname.obj
 0003:0000b6ec       ??_C@_08EHJDFFNH@__based?$CI?$AA@ 004db6ec     LIBCMTD:undname.obj
 0003:0000b8c4       ??_C@_04HEJADOOB@CV?3?5?$AA@ 004db8c4     LIBCMTD:undname.obj
 0003:0000b8cc       ??_C@_01GEODFPGF@?8?$AA@   004db8cc     LIBCMTD:undname.obj
 0003:0000b8d0       ??_C@_01NLNLIGKH@?$GA?$AA@ 004db8d0     LIBCMTD:undname.obj
 0003:0000b8d4       ??_C@_0O@KHGCOMHP@generic?9type?9?$AA@ 004db8d4     LIBCMTD:undname.obj
 0003:0000b8e4       ??_C@_0BE@JAEOCHPE@template?9parameter?9?$AA@ 004db8e4     LIBCMTD:undname.obj
 0003:0000b8fc       ??_C@_02OHHJMEON@?8?8?$AA@ 004db8fc     LIBCMTD:undname.obj
 0003:0000b900       ??_C@_0BG@JNJLAMPM@?$GAanonymous?5namespace?8?$AA@ 004db900     LIBCMTD:undname.obj
 0003:0000b91c       ??_C@_0BN@IBLMMFAP@?$GAnon?9type?9template?9parameter?$AA@ 004db91c     LIBCMTD:undname.obj
 0003:0000b940       ??_C@_0BE@EODMJLIF@?$GAtemplate?9parameter?$AA@ 004db940     LIBCMTD:undname.obj
 0003:0000b958       ??_C@_04GKJNKENE@void?$AA@ 004db958     LIBCMTD:undname.obj
 0003:0000b960       ??_C@_04HIBGFPH@NULL?$AA@  004db960     LIBCMTD:undname.obj
 0003:0000b968       ??_C@_0M@DHNBOJMP@extern?5?$CCC?$CC?5?$AA@ 004db968     LIBCMTD:undname.obj
 0003:0000b978       ??_C@_08KJLFOPNE@?$FLthunk?$FN?3?$AA@ 004db978     LIBCMTD:undname.obj
 0003:0000b984       ??_C@_08GPDDCMKI@public?3?5?$AA@ 004db984     LIBCMTD:undname.obj
 0003:0000b990       ??_C@_0M@GAIFPFIP@protected?3?5?$AA@ 004db990     LIBCMTD:undname.obj
 0003:0000b9a0       ??_C@_09LAPHOOG@private?3?5?$AA@ 004db9a0     LIBCMTD:undname.obj
 0003:0000b9ac       ??_C@_08NIEOINHE@virtual?5?$AA@ 004db9ac     LIBCMTD:undname.obj
 0003:0000b9b8       ??_C@_07PGOEDBHP@static?5?$AA@ 004db9b8     LIBCMTD:undname.obj
 0003:0000b9c4       ??_C@_0DA@HGFJFBBE@?$GAtemplate?5static?5data?5member?5des@ 004db9c4     LIBCMTD:undname.obj
 0003:0000ba00       ??_C@_0DB@ILEFOCIJ@?$GAtemplate?5static?5data?5member?5con@ 004dba00     LIBCMTD:undname.obj
 0003:0000ba3c       ??_C@_0CB@KJDOOODE@?$GAlocal?5static?5destructor?5helper?8@ 004dba3c     LIBCMTD:undname.obj
 0003:0000ba64       ??_C@_0L@HNGCOGAE@?$GAadjustor?$HL?$AA@ 004dba64     LIBCMTD:undname.obj
 0003:0000ba74       ??_C@_0L@GHPFDFH@?$GAvtordisp?$HL?$AA@ 004dba74     LIBCMTD:undname.obj
 0003:0000ba84       ??_C@_0N@CBHHHENL@?$GAvtordispex?$HL?$AA@ 004dba84     LIBCMTD:undname.obj
 0003:0000ba94       ??_C@_02IGFCGPIL@?$HN?8?$AA@ 004dba94     LIBCMTD:undname.obj
 0003:0000ba98       ??_C@_03OPGICMGF@?$HN?8?5?$AA@ 004dba98     LIBCMTD:undname.obj
 0003:0000ba9c       ??_C@_02KCKGHPCA@?$CJ?5?$AA@ 004dba9c     LIBCMTD:undname.obj
 0003:0000baa0       ??_C@_05BEFAKPML@void?5?$AA@ 004dbaa0     LIBCMTD:undname.obj
 0003:0000baa8       ??_C@_08PABEKFH@volatile?$AA@ 004dbaa8     LIBCMTD:undname.obj
 0003:0000bab4       ??_C@_0M@ELJOJFFH@?0?$DMellipsis?$DO?$AA@ 004dbab4     LIBCMTD:undname.obj
 0003:0000bac4       ??_C@_04EENFHACM@?0?4?4?4?$AA@ 004dbac4     LIBCMTD:undname.obj
 0003:0000bacc       ??_C@_0L@EGPHHEKN@?$DMellipsis?$DO?$AA@ 004dbacc     LIBCMTD:undname.obj
 0003:0000badc       ??_C@_07HDJPLPEK@?5throw?$CI?$AA@ 004dbadc     LIBCMTD:undname.obj
 0003:0000bae8       ??_C@_09EFNPDFFP@?5volatile?$AA@ 004dbae8     LIBCMTD:undname.obj
 0003:0000baf4       ??_C@_05BNCCCJPP@const?$AA@ 004dbaf4     LIBCMTD:undname.obj
 0003:0000bafc       ??_C@_07EDHNAJHC@signed?5?$AA@ 004dbafc     LIBCMTD:undname.obj
 0003:0000bb08       ??_C@_09EBBEKKIH@unsigned?5?$AA@ 004dbb08     LIBCMTD:undname.obj
 0003:0000bb14       ??_C@_07NFANNNEC@UNKNOWN?$AA@ 004dbb14     LIBCMTD:undname.obj
 0003:0000bb20       ??_C@_06GCICPBLB@__w64?5?$AA@ 004dbb20     LIBCMTD:undname.obj
 0003:0000bb28       ??_C@_07CLGGIAMF@wchar_t?$AA@ 004dbb28     LIBCMTD:undname.obj
 0003:0000bb34       ??_C@_08GAHOLHEO@__int128?$AA@ 004dbb34     LIBCMTD:undname.obj
 0003:0000bb40       ??_C@_07LFCOJCAC@__int64?$AA@ 004dbb40     LIBCMTD:undname.obj
 0003:0000bb4c       ??_C@_07OFLPPHGP@__int32?$AA@ 004dbb4c     LIBCMTD:undname.obj
 0003:0000bb58       ??_C@_07ICFHOGAF@__int16?$AA@ 004dbb58     LIBCMTD:undname.obj
 0003:0000bb64       ??_C@_06EBGKOKIG@__int8?$AA@ 004dbb64     LIBCMTD:undname.obj
 0003:0000bb6c       ??_C@_04DDKJGDCM@bool?$AA@ 004dbb6c     LIBCMTD:undname.obj
 0003:0000bb74       ??_C@_06BNJCAIGJ@double?$AA@ 004dbb74     LIBCMTD:undname.obj
 0003:0000bb7c       ??_C@_05CJIMAING@long?5?$AA@ 004dbb7c     LIBCMTD:undname.obj
 0003:0000bb84       ??_C@_05KNFBNCOH@float?$AA@ 004dbb84     LIBCMTD:undname.obj
 0003:0000bb8c       ??_C@_04GOKPGOLB@long?$AA@ 004dbb8c     LIBCMTD:undname.obj
 0003:0000bb94       ??_C@_03JBIPMCLC@int?$AA@  004dbb94     LIBCMTD:undname.obj
 0003:0000bb98       ??_C@_05BFKKPKCG@short?$AA@ 004dbb98     LIBCMTD:undname.obj
 0003:0000bba0       ??_C@_04ENMBGAPA@char?$AA@ 004dbba0     LIBCMTD:undname.obj
 0003:0000bba8       ??_C@_05LJGMCFOG@enum?5?$AA@ 004dbba8     LIBCMTD:undname.obj
 0003:0000bbb0       ??_C@_0N@DLIEFKNA@cointerface?5?$AA@ 004dbbb0     LIBCMTD:undname.obj
 0003:0000bbc0       ??_C@_08KOFANOFK@coclass?5?$AA@ 004dbbc0     LIBCMTD:undname.obj
 0003:0000bbcc       ??_C@_06LJBABKPM@class?5?$AA@ 004dbbcc     LIBCMTD:undname.obj
 0003:0000bbd4       ??_C@_07DIBCDNGL@struct?5?$AA@ 004dbbd4     LIBCMTD:undname.obj
 0003:0000bbe0       ??_C@_06MOJHIBMG@union?5?$AA@ 004dbbe0     LIBCMTD:undname.obj
 0003:0000bbe8       ??_C@_0P@GCIFDJCJ@?$GAunknown?5ecsu?8?$AA@ 004dbbe8     LIBCMTD:undname.obj
 0003:0000bbfc       ??_C@_04LAHKHJMA@int?5?$AA@ 004dbbfc     LIBCMTD:undname.obj
 0003:0000bc04       ??_C@_06EHJMALKF@short?5?$AA@ 004dbc04     LIBCMTD:undname.obj
 0003:0000bc0c       ??_C@_05CIHEBHNO@char?5?$AA@ 004dbc0c     LIBCMTD:undname.obj
 0003:0000bc14       ??_C@_06LIJLOJAG@const?5?$AA@ 004dbc14     LIBCMTD:undname.obj
 0003:0000bc1c       ??_C@_09GAIEOBLP@volatile?5?$AA@ 004dbc1c     LIBCMTD:undname.obj
 0003:0000bc28       ??_C@_0O@GKABPPIF@cli?3?3pin_ptr?$DM?$AA@ 004dbc28     LIBCMTD:undname.obj
 0003:0000bc38       ??_C@_0M@EALIELKG@cli?3?3array?$DM?$AA@ 004dbc38     LIBCMTD:undname.obj
 0003:0000bc48       ??_C@_02GOGNNPBN@?$CJ?$FL?$AA@ 004dbc48     LIBCMTD:undname.obj
 0003:0000bc4c       ??_C@_06EEGAIFAK@?$HLflat?$HN?$AA@ 004dbc4c     LIBCMTD:undname.obj
 0003:0000bc54       ??_C@_02MDINNEEG@s?5?$AA@  004dbc54     LIBCMTD:undname.obj
 0003:0000bc58       ??_C@_05JIBOFOHK@?$HLfor?5?$AA@ 004dbc58     LIBCMTD:undname.obj
 0003:0000bc60       ??_7DNameNode@@6B@         004dbc60     LIBCMTD:undname.obj
 0003:0000bc70       ??_7charNode@@6B@          004dbc70     LIBCMTD:undname.obj
 0003:0000bc80       ??_7pcharNode@@6B@         004dbc80     LIBCMTD:undname.obj
 0003:0000bc90       ??_7pDNameNode@@6B@        004dbc90     LIBCMTD:undname.obj
 0003:0000bca0       ??_7DNameStatusNode@@6B@   004dbca0     LIBCMTD:undname.obj
 0003:0000bcb0       ??_C@_04OKOHEJBO@?5?$DP?$DP?5?$AA@ 004dbcb0     LIBCMTD:undname.obj
 0003:0000bcb8       ??_7pairNode@@6B@          004dbcb8     LIBCMTD:undname.obj
 0003:0000bcc8       ??_C@_08JCCMCCIL@HH?3mm?3ss?$AA@ 004dbcc8     LIBCMTD:strftime.obj
 0003:0000bcd4       ??_C@_0BE@CKGJFCPC@dddd?0?5MMMM?5dd?0?5yyyy?$AA@ 004dbcd4     LIBCMTD:strftime.obj
 0003:0000bcec       ??_C@_08BPBNCDIB@MM?1dd?1yy?$AA@ 004dbcec     LIBCMTD:strftime.obj
 0003:0000bcf8       ??_C@_02CJNFDJBF@PM?$AA@   004dbcf8     LIBCMTD:strftime.obj
 0003:0000bcfc       ??_C@_02DEDBPAFC@AM?$AA@   004dbcfc     LIBCMTD:strftime.obj
 0003:0000bd00       ??_C@_08EDHMEBNP@December?$AA@ 004dbd00     LIBCMTD:strftime.obj
 0003:0000bd0c       ??_C@_08HCHEGEOA@November?$AA@ 004dbd0c     LIBCMTD:strftime.obj
 0003:0000bd18       ??_C@_07JJNFCEND@October?$AA@ 004dbd18     LIBCMTD:strftime.obj
 0003:0000bd24       ??_C@_09BHHEALKD@September?$AA@ 004dbd24     LIBCMTD:strftime.obj
 0003:0000bd30       ??_C@_06LBBHFDDG@August?$AA@ 004dbd30     LIBCMTD:strftime.obj
 0003:0000bd38       ??_C@_04MIEPOIFP@July?$AA@ 004dbd38     LIBCMTD:strftime.obj
 0003:0000bd40       ??_C@_04CNLMGBGM@June?$AA@ 004dbd40     LIBCMTD:strftime.obj
 0003:0000bd48       ??_C@_05DMJDNLEJ@April?$AA@ 004dbd48     LIBCMTD:strftime.obj
 0003:0000bd50       ??_C@_05HPCKOFNC@March?$AA@ 004dbd50     LIBCMTD:strftime.obj
 0003:0000bd58       ??_C@_08GNJGEPFN@February?$AA@ 004dbd58     LIBCMTD:strftime.obj
 0003:0000bd64       ??_C@_07CGJPFGJA@January?$AA@ 004dbd64     LIBCMTD:strftime.obj
 0003:0000bd70       ??_C@_03MKABNOCG@Dec?$AA@  004dbd70     LIBCMTD:strftime.obj
 0003:0000bd74       ??_C@_03JPJOFNIA@Nov?$AA@  004dbd74     LIBCMTD:strftime.obj
 0003:0000bd78       ??_C@_03BMAOKBAD@Oct?$AA@  004dbd78     LIBCMTD:strftime.obj
 0003:0000bd7c       ??_C@_03GGCAPAJC@Sep?$AA@  004dbd7c     LIBCMTD:strftime.obj
 0003:0000bd80       ??_C@_03IFJFEIGA@Aug?$AA@  004dbd80     LIBCMTD:strftime.obj
 0003:0000bd84       ??_C@_03LBGABGKK@Jul?$AA@  004dbd84     LIBCMTD:strftime.obj
 0003:0000bd88       ??_C@_03IDFGHECI@Jun?$AA@  004dbd88     LIBCMTD:strftime.obj
 0003:0000bd8c       ??_C@_03CNMDKL@May?$AA@    004dbd8c     LIBCMTD:strftime.obj
 0003:0000bd90       ??_C@_03LEOLGMJP@Apr?$AA@  004dbd90     LIBCMTD:strftime.obj
 0003:0000bd94       ??_C@_03ODNJBKGA@Mar?$AA@  004dbd94     LIBCMTD:strftime.obj
 0003:0000bd98       ??_C@_03HJBDCHOM@Feb?$AA@  004dbd98     LIBCMTD:strftime.obj
 0003:0000bd9c       ??_C@_03JIHJHPIE@Jan?$AA@  004dbd9c     LIBCMTD:strftime.obj
 0003:0000bda0       ??_C@_08INBOOONO@Saturday?$AA@ 004dbda0     LIBCMTD:strftime.obj
 0003:0000bdac       ??_C@_06JECMNKMI@Friday?$AA@ 004dbdac     LIBCMTD:strftime.obj
 0003:0000bdb4       ??_C@_08HACCIKIA@Thursday?$AA@ 004dbdb4     LIBCMTD:strftime.obj
 0003:0000bdc0       ??_C@_09DLIGFAKA@Wednesday?$AA@ 004dbdc0     LIBCMTD:strftime.obj
 0003:0000bdcc       ??_C@_07BAAGCFCM@Tuesday?$AA@ 004dbdcc     LIBCMTD:strftime.obj
 0003:0000bdd8       ??_C@_06JLEDEDGH@Monday?$AA@ 004dbdd8     LIBCMTD:strftime.obj
 0003:0000bde0       ??_C@_06OOPIFAJ@Sunday?$AA@ 004dbde0     LIBCMTD:strftime.obj
 0003:0000bde8       ??_C@_03FEFJNEK@Sat?$AA@   004dbde8     LIBCMTD:strftime.obj
 0003:0000bdec       ??_C@_03IDIOELNC@Fri?$AA@  004dbdec     LIBCMTD:strftime.obj
 0003:0000bdf0       ??_C@_03IOFIKPDN@Thu?$AA@  004dbdf0     LIBCMTD:strftime.obj
 0003:0000bdf4       ??_C@_03MHOMLAJA@Wed?$AA@  004dbdf4     LIBCMTD:strftime.obj
 0003:0000bdf8       ??_C@_03NAGEINEP@Tue?$AA@  004dbdf8     LIBCMTD:strftime.obj
 0003:0000bdfc       ??_C@_03PDAGKDH@Mon?$AA@   004dbdfc     LIBCMTD:strftime.obj
 0003:0000be00       ??_C@_03KOEHGMDN@Sun?$AA@  004dbe00     LIBCMTD:strftime.obj
 0003:0000be08       ??_C@_1FM@LPEPDBJF@?$AAs?$AAt?$AAr?$AAc?$AAp?$AAy?$AA_?$AAs?$AA?$CI?$AAs?$AA?0?$AA?5?$AA?$CI?$AAl?$AAe?$AAn?$AA?5?$AA?$CL?$AA?5?$AA1?$AA?$CJ?$AA?5?$AA?9?$AA?5?$AA?$CI?$AAs?$AA?5?$AA?9?$AA?5?$AAp?$AA?$CJ?$AA?0@ 004dbe08     LIBCMTD:strftime.obj
 0003:0000be78       ??_C@_1GG@NAGHPCAA@?$AAs?$AAt?$AAr?$AAc?$AAp?$AAy?$AA_?$AAs?$AA?$CI?$AAs?$AA?0?$AA?5?$AA?$CI?$AAl?$AAe?$AAn?$AA?5?$AA?$CL?$AA?5?$AA1?$AA?$CJ?$AA?5?$AA?9?$AA?5?$AA?$CI?$AAs?$AA?5?$AA?9?$AA?5?$AAp?$AA?$CJ?$AA?0@ 004dbe78     LIBCMTD:strftime.obj
 0003:0000bef4       ??_C@_1BG@LGACIFJI@?$AA_?$AAG?$AAe?$AAt?$AAd?$AAa?$AAy?$AAs?$AA_?$AAl?$AA?$AA@ 004dbef4     LIBCMTD:strftime.obj
 0003:0000bf10       ??_C@_1GE@FCOIONJG@?$AAf?$AA?3?$AA?2?$AAd?$AAd?$AA?2?$AAv?$AAc?$AAt?$AAo?$AAo?$AAl?$AAs?$AA?2?$AAc?$AAr?$AAt?$AA_?$AAb?$AAl?$AAd?$AA?2?$AAs?$AAe?$AAl?$AAf?$AA_?$AAx?$AA8?$AA6?$AA?2?$AAc@ 004dbf10     LIBCMTD:strftime.obj
 0003:0000bf88       ??_C@_0DC@MEPJBKMO@f?3?2dd?2vctools?2crt_bld?2self_x86?2c@ 004dbf88     LIBCMTD:strftime.obj
 0003:0000bfc8       ??_C@_1FO@IFFKPIEL@?$AAs?$AAt?$AAr?$AAc?$AAp?$AAy?$AA_?$AAs?$AA?$CI?$AAs?$AA?0?$AA?5?$AA?$CI?$AAl?$AAe?$AAn?$AA?5?$AA?$CL?$AA?5?$AA1?$AA?$CJ?$AA?5?$AA?9?$AA?5?$AA?$CI?$AAs?$AA?5?$AA?9?$AA?5?$AAp?$AA?$CJ?$AA?0@ 004dbfc8     LIBCMTD:strftime.obj
 0003:0000c038       ??_C@_1GI@LNJDDNLK@?$AAs?$AAt?$AAr?$AAc?$AAp?$AAy?$AA_?$AAs?$AA?$CI?$AAs?$AA?0?$AA?5?$AA?$CI?$AAl?$AAe?$AAn?$AA?5?$AA?$CL?$AA?5?$AA1?$AA?$CJ?$AA?5?$AA?9?$AA?5?$AA?$CI?$AAs?$AA?5?$AA?9?$AA?5?$AAp?$AA?$CJ?$AA?0@ 004dc038     LIBCMTD:strftime.obj
 0003:0000c0b4       ??_C@_1BK@IDMELNCB@?$AA_?$AAG?$AAe?$AAt?$AAm?$AAo?$AAn?$AAt?$AAh?$AAs?$AA_?$AAl?$AA?$AA@ 004dc0b4     LIBCMTD:strftime.obj
 0003:0000c0d8       ??_C@_1FG@CJBIADLJ@?$AAs?$AAt?$AAr?$AAc?$AAp?$AAy?$AA_?$AAs?$AA?$CI?$AAs?$AA?0?$AA?5?$AAl?$AAe?$AAn?$AA?5?$AA?9?$AA?5?$AA?$CI?$AAs?$AA?5?$AA?9?$AA?5?$AAp?$AA?$CJ?$AA?0?$AA?5?$AAp?$AAt?$AA?9?$AA?$DO?$AAw@ 004dc0d8     LIBCMTD:strftime.obj
 0003:0000c140       ??_C@_1FI@PPIHCJGH@?$AAs?$AAt?$AAr?$AAc?$AAp?$AAy?$AA_?$AAs?$AA?$CI?$AAs?$AA?0?$AA?5?$AAl?$AAe?$AAn?$AA?5?$AA?9?$AA?5?$AA?$CI?$AAs?$AA?5?$AA?9?$AA?5?$AAp?$AA?$CJ?$AA?0?$AA?5?$AAp?$AAt?$AA?9?$AA?$DO?$AAw@ 004dc140     LIBCMTD:strftime.obj
 0003:0000c1b0       ??_C@_1FI@GDNOPCGD@?$AAs?$AAt?$AAr?$AAc?$AAp?$AAy?$AA_?$AAs?$AA?$CI?$AAs?$AA?0?$AA?5?$AAl?$AAe?$AAn?$AA?5?$AA?9?$AA?5?$AA?$CI?$AAs?$AA?5?$AA?9?$AA?5?$AAp?$AA?$CJ?$AA?0?$AA?5?$AAp?$AAt?$AA?9?$AA?$DO?$AAw@ 004dc1b0     LIBCMTD:strftime.obj
 0003:0000c220       ??_C@_1FA@MEHIJEIL@?$AAs?$AAt?$AAr?$AAc?$AAp?$AAy?$AA_?$AAs?$AA?$CI?$AAs?$AA?0?$AA?5?$AAl?$AAe?$AAn?$AA?5?$AA?9?$AA?5?$AA?$CI?$AAs?$AA?5?$AA?9?$AA?5?$AAp?$AA?$CJ?$AA?0?$AA?5?$AAp?$AAt?$AA?9?$AA?$DO?$AAa@ 004dc220     LIBCMTD:strftime.obj
 0003:0000c280       ??_C@_1FA@INCJEBF@?$AAs?$AAt?$AAr?$AAc?$AAp?$AAy?$AA_?$AAs?$AA?$CI?$AAs?$AA?0?$AA?5?$AAl?$AAe?$AAn?$AA?5?$AA?9?$AA?5?$AA?$CI?$AAs?$AA?5?$AA?9?$AA?5?$AAp?$AA?$CJ?$AA?0?$AA?5?$AAp?$AAt?$AA?9?$AA?$DO?$AAa@ 004dc280     LIBCMTD:strftime.obj
 0003:0000c2e0       ??_C@_1FC@BEAPAEGE@?$AAs?$AAt?$AAr?$AAc?$AAp?$AAy?$AA_?$AAs?$AA?$CI?$AAs?$AA?0?$AA?5?$AAl?$AAe?$AAn?$AA?5?$AA?9?$AA?5?$AA?$CI?$AAs?$AA?5?$AA?9?$AA?5?$AAp?$AA?$CJ?$AA?0?$AA?5?$AAp?$AAt?$AA?9?$AA?$DO?$AAm@ 004dc2e0     LIBCMTD:strftime.obj
 0003:0000c348       ??_C@_1FM@CHHONFED@?$AAs?$AAt?$AAr?$AAc?$AAp?$AAy?$AA_?$AAs?$AA?$CI?$AAs?$AA?0?$AA?5?$AAl?$AAe?$AAn?$AA?5?$AA?9?$AA?5?$AA?$CI?$AAs?$AA?5?$AA?9?$AA?5?$AAp?$AA?$CJ?$AA?0?$AA?5?$AAp?$AAt?$AA?9?$AA?$DO?$AAm@ 004dc348     LIBCMTD:strftime.obj
 0003:0000c3b8       ??_C@_1FA@EBHJJADL@?$AAs?$AAt?$AAr?$AAc?$AAp?$AAy?$AA_?$AAs?$AA?$CI?$AAs?$AA?0?$AA?5?$AAl?$AAe?$AAn?$AA?5?$AA?9?$AA?5?$AA?$CI?$AAs?$AA?5?$AA?9?$AA?5?$AAp?$AA?$CJ?$AA?0?$AA?5?$AAp?$AAt?$AA?9?$AA?$DO?$AAw@ 004dc3b8     LIBCMTD:strftime.obj
 0003:0000c418       ??_C@_1FK@ODMKEFLD@?$AAs?$AAt?$AAr?$AAc?$AAp?$AAy?$AA_?$AAs?$AA?$CI?$AAs?$AA?0?$AA?5?$AAl?$AAe?$AAn?$AA?5?$AA?9?$AA?5?$AA?$CI?$AAs?$AA?5?$AA?9?$AA?5?$AAp?$AA?$CJ?$AA?0?$AA?5?$AAp?$AAt?$AA?9?$AA?$DO?$AAw@ 004dc418     LIBCMTD:strftime.obj
 0003:0000c484       ??_C@_1BK@MJNHIAGO@?$AA_?$AAG?$AAe?$AAt?$AAt?$AAn?$AAa?$AAm?$AAe?$AAs?$AA_?$AAl?$AA?$AA@ 004dc484     LIBCMTD:strftime.obj
 0003:0000c4a4       ??_C@_1M@HCOOECOK@?$AAF?$AAA?$AAL?$AAS?$AAE?$AA?$AA@ 004dc4a4     LIBCMTD:strftime.obj
 0003:0000c4b8       ??_C@_1HC@JGDOBCNK@?$AA?$CI?$AA?$CC?$AAI?$AAn?$AAv?$AAa?$AAl?$AAi?$AAd?$AA?5?$AAM?$AAB?$AAC?$AAS?$AA?5?$AAc?$AAh?$AAa?$AAr?$AAa?$AAc?$AAt?$AAe?$AAr?$AA?5?$AAs?$AAe?$AAq?$AAu?$AAe?$AAn?$AAc@ 004dc4b8     LIBCMTD:strftime.obj
 0003:0000c540       ??_C@_1CA@COHOENPC@?$AAt?$AAi?$AAm?$AAe?$AAp?$AAt?$AAr?$AA?5?$AA?$CB?$AA?$DN?$AA?5?$AAN?$AAU?$AAL?$AAL?$AA?$AA@ 004dc540     LIBCMTD:strftime.obj
 0003:0000c568       ??_C@_1CG@MHIOFJLE@?$AA?$CI?$AA?5?$AAf?$AAo?$AAr?$AAm?$AAa?$AAt?$AA?5?$AA?$CB?$AA?$DN?$AA?5?$AAN?$AAU?$AAL?$AAL?$AA?5?$AA?$CJ?$AA?$AA@ 004dc568     LIBCMTD:strftime.obj
 0003:0000c598       ??_C@_1CC@IHEJKGMG@?$AA?$CI?$AA?5?$AAm?$AAa?$AAx?$AAs?$AAi?$AAz?$AAe?$AA?5?$AA?$CB?$AA?$DN?$AA?5?$AA0?$AA?5?$AA?$CJ?$AA?$AA@ 004dc598     LIBCMTD:strftime.obj
 0003:0000c5c0       ??_C@_1BI@ONBMGNNA@?$AA_?$AAS?$AAt?$AAr?$AAf?$AAt?$AAi?$AAm?$AAe?$AA_?$AAl?$AA?$AA@ 004dc5c0     LIBCMTD:strftime.obj
 0003:0000c5dc       ??_C@_1CG@MPKJHDAA@?$AA?$CI?$AA?5?$AAs?$AAt?$AAr?$AAi?$AAn?$AAg?$AA?5?$AA?$CB?$AA?$DN?$AA?5?$AAN?$AAU?$AAL?$AAL?$AA?5?$AA?$CJ?$AA?$AA@ 004dc5dc     LIBCMTD:strftime.obj
 0003:0000c610       ??_C@_1EG@JNJKHKFI@?$AA?$CI?$AA?5?$AA?$CC?$AAI?$AAn?$AAv?$AAa?$AAl?$AAi?$AAd?$AA?5?$AAf?$AAo?$AAr?$AAm?$AAa?$AAt?$AA?5?$AAd?$AAi?$AAr?$AAe?$AAc?$AAt?$AAi?$AAv?$AAe?$AA?$CC?$AA?5?$AA?0?$AA?5?$AA0@ 004dc610     LIBCMTD:strftime.obj
 0003:0000c668       ??_C@_1HM@LBNGKIAD@?$AA?$CI?$AA?5?$AAt?$AAi?$AAm?$AAe?$AAp?$AAt?$AAr?$AA?9?$AA?$DO?$AAt?$AAm?$AA_?$AAy?$AAe?$AAa?$AAr?$AA?5?$AA?$DO?$AA?$DN?$AA?5?$AA?9?$AA1?$AA9?$AA0?$AA0?$AA?5?$AA?$CJ?$AA?5?$AA?$CG?$AA?$CG@ 004dc668     LIBCMTD:strftime.obj
 0003:0000c6fc       ??_C@_1DC@NMCFBMJP@?$AA?$CI?$AA?5?$AAt?$AAi?$AAm?$AAe?$AAp?$AAt?$AAr?$AA?9?$AA?$DO?$AAt?$AAm?$AA_?$AAy?$AAe?$AAa?$AAr?$AA?5?$AA?$DO?$AA?$DN?$AA0?$AA?5?$AA?$CJ?$AA?$AA@ 004dc6fc     LIBCMTD:strftime.obj
 0003:0000c738       ??_C@_1HC@HLKHIKOB@?$AA?$CI?$AA?5?$AA?$CI?$AA?5?$AAt?$AAi?$AAm?$AAe?$AAp?$AAt?$AAr?$AA?9?$AA?$DO?$AAt?$AAm?$AA_?$AAs?$AAe?$AAc?$AA?5?$AA?$DO?$AA?$DN?$AA0?$AA?5?$AA?$CJ?$AA?5?$AA?$CG?$AA?$CG?$AA?5?$AA?$CI?$AA?5?$AAt@ 004dc738     LIBCMTD:strftime.obj
 0003:0000c7c0       ??_C@_1HC@IGKDPPHL@?$AA?$CI?$AA?5?$AA?$CI?$AA?5?$AAt?$AAi?$AAm?$AAe?$AAp?$AAt?$AAr?$AA?9?$AA?$DO?$AAt?$AAm?$AA_?$AAm?$AAi?$AAn?$AA?5?$AA?$DO?$AA?$DN?$AA0?$AA?5?$AA?$CJ?$AA?5?$AA?$CG?$AA?$CG?$AA?5?$AA?$CI?$AA?5?$AAt@ 004dc7c0     LIBCMTD:strftime.obj
 0003:0000c848       ??_C@_1HI@HHCJCPE@?$AA?$CI?$AA?5?$AA?$CI?$AA?5?$AAt?$AAi?$AAm?$AAe?$AAp?$AAt?$AAr?$AA?9?$AA?$DO?$AAt?$AAm?$AA_?$AAy?$AAd?$AAa?$AAy?$AA?5?$AA?$DO?$AA?$DN?$AA0?$AA?5?$AA?$CJ?$AA?5?$AA?$CG?$AA?$CG?$AA?5?$AA?$CI?$AA?5@ 004dc848     LIBCMTD:strftime.obj
 0003:0000c8d8       ??_C@_1HG@KCGGFLNI@?$AA?$CI?$AA?5?$AA?$CI?$AA?5?$AAt?$AAi?$AAm?$AAe?$AAp?$AAt?$AAr?$AA?9?$AA?$DO?$AAt?$AAm?$AA_?$AAh?$AAo?$AAu?$AAr?$AA?5?$AA?$DO?$AA?$DN?$AA0?$AA?5?$AA?$CJ?$AA?5?$AA?$CG?$AA?$CG?$AA?5?$AA?$CI?$AA?5@ 004dc8d8     LIBCMTD:strftime.obj
 0003:0000c968       ??_C@_1HG@NFHHOAD@?$AA?$CI?$AA?5?$AA?$CI?$AA?5?$AAt?$AAi?$AAm?$AAe?$AAp?$AAt?$AAr?$AA?9?$AA?$DO?$AAt?$AAm?$AA_?$AAm?$AAd?$AAa?$AAy?$AA?5?$AA?$DO?$AA?$DN?$AA1?$AA?5?$AA?$CJ?$AA?5?$AA?$CG?$AA?$CG?$AA?5?$AA?$CI?$AA?5@ 004dc968     LIBCMTD:strftime.obj
 0003:0000c9f8       ??_C@_1HC@OOAMILFB@?$AA?$CI?$AA?5?$AA?$CI?$AA?5?$AAt?$AAi?$AAm?$AAe?$AAp?$AAt?$AAr?$AA?9?$AA?$DO?$AAt?$AAm?$AA_?$AAm?$AAo?$AAn?$AA?5?$AA?$DO?$AA?$DN?$AA0?$AA?5?$AA?$CJ?$AA?5?$AA?$CG?$AA?$CG?$AA?5?$AA?$CI?$AA?5?$AAt@ 004dc9f8     LIBCMTD:strftime.obj
 0003:0000ca80       ??_C@_1BI@HBKPAJH@?$AA_?$AAe?$AAx?$AAp?$AAa?$AAn?$AAd?$AAt?$AAi?$AAm?$AAe?$AA?$AA@ 004dca80     LIBCMTD:strftime.obj
 0003:0000caa0       ??_C@_1HE@BFLEOKFO@?$AA?$CI?$AA?5?$AA?$CI?$AA?5?$AAt?$AAi?$AAm?$AAe?$AAp?$AAt?$AAr?$AA?9?$AA?$DO?$AAt?$AAm?$AA_?$AAw?$AAd?$AAa?$AAy?$AA?5?$AA?$DO?$AA?$DN?$AA0?$AA?5?$AA?$CJ?$AA?5?$AA?$CG?$AA?$CG?$AA?5?$AA?$CI?$AA?5@ 004dcaa0     LIBCMTD:strftime.obj
 0003:0000cb30       ??_C@_1HG@PAEENAPO@?$AA?$CI?$AA?$CC?$AAI?$AAn?$AAv?$AAa?$AAl?$AAi?$AAd?$AA?5?$AAM?$AAB?$AAC?$AAS?$AA?5?$AAc?$AAh?$AAa?$AAr?$AAa?$AAc?$AAt?$AAe?$AAr?$AA?5?$AAs?$AAe?$AAq?$AAu?$AAe?$AAn?$AAc@ 004dcb30     LIBCMTD:strftime.obj
 0003:0000cbc0       ??_C@_1IE@EIDABBDG@?$AA?$CI?$AA?$CC?$AAI?$AAn?$AAv?$AAa?$AAl?$AAi?$AAd?$AA?5?$AAM?$AAB?$AAC?$AAS?$AA?5?$AAc?$AAh?$AAa?$AAr?$AAa?$AAc?$AAt?$AAe?$AAr?$AA?5?$AAs?$AAe?$AAq?$AAu?$AAe?$AAn?$AAc@ 004dcbc0     LIBCMTD:strftime.obj
 0003:0000cc60       ??_C@_03EBAPMIKO@a?1p?$AA@ 004dcc60     LIBCMTD:strftime.obj
 0003:0000cc64       ??_C@_05JAMEPDIN@am?1pm?$AA@ 004dcc64     LIBCMTD:strftime.obj
 0003:0000cc70       ___newctype                004dcc70     LIBCMTD:ctype.obj
 0003:0000cf70       __wctype                   004dcf70     LIBCMTD:ctype.obj
 0003:0000d178       ___newclmap                004dd178     LIBCMTD:ctype.obj
 0003:0000d2f8       ___newcumap                004dd2f8     LIBCMTD:ctype.obj
 0003:0000d618       ??_C@_1GE@GJCMHHMH@?$AAf?$AA?3?$AA?2?$AAd?$AAd?$AA?2?$AAv?$AAc?$AAt?$AAo?$AAo?$AAl?$AAs?$AA?2?$AAc?$AAr?$AAt?$AA_?$AAb?$AAl?$AAd?$AA?2?$AAs?$AAe?$AAl?$AAf?$AA_?$AAx?$AA8?$AA6?$AA?2?$AAc@ 004dd618     LIBCMTD:inittime.obj
 0003:0000d690       ??_C@_1EE@FDHCFDHN@?$AAp?$AAl?$AAo?$AAc?$AAi?$AA?9?$AA?$DO?$AAl?$AAc?$AA_?$AAt?$AAi?$AAm?$AAe?$AA_?$AAc?$AAu?$AAr?$AAr?$AA?9?$AA?$DO?$AAr?$AAe?$AAf?$AAc?$AAo?$AAu?$AAn?$AAt?$AA?5?$AA?$DO?$AA?5@ 004dd690     LIBCMTD:inittime.obj
 0003:0000d6e4       ??_C@_0DC@KICHHNFK@f?3?2dd?2vctools?2crt_bld?2self_x86?2c@ 004dd6e4     LIBCMTD:inittime.obj
 0003:0000d720       ??_C@_1GC@EDJOCBCL@?$AAf?$AA?3?$AA?2?$AAd?$AAd?$AA?2?$AAv?$AAc?$AAt?$AAo?$AAo?$AAl?$AAs?$AA?2?$AAc?$AAr?$AAt?$AA_?$AAb?$AAl?$AAd?$AA?2?$AAs?$AAe?$AAl?$AAf?$AA_?$AAx?$AA8?$AA6?$AA?2?$AAc@ 004dd720     LIBCMTD:initnum.obj
 0003:0000d798       ??_C@_1DM@IFKAINNE@?$AAp?$AAl?$AAo?$AAc?$AAi?$AA?9?$AA?$DO?$AAl?$AAc?$AAo?$AAn?$AAv?$AA_?$AAn?$AAu?$AAm?$AA_?$AAr?$AAe?$AAf?$AAc?$AAo?$AAu?$AAn?$AAt?$AA?5?$AA?$DO?$AA?5?$AA0?$AA?$AA@ 004dd798     LIBCMTD:initnum.obj
 0003:0000d7e0       ??_C@_0DB@KKFMDHFI@f?3?2dd?2vctools?2crt_bld?2self_x86?2c@ 004dd7e0     LIBCMTD:initnum.obj
 0003:0000d820       ??_C@_1GC@IKADOFBJ@?$AAf?$AA?3?$AA?2?$AAd?$AAd?$AA?2?$AAv?$AAc?$AAt?$AAo?$AAo?$AAl?$AAs?$AA?2?$AAc?$AAr?$AAt?$AA_?$AAb?$AAl?$AAd?$AA?2?$AAs?$AAe?$AAl?$AAf?$AA_?$AAx?$AA8?$AA6?$AA?2?$AAc@ 004dd820     LIBCMTD:initmon.obj
 0003:0000d898       ??_C@_1DM@GKAPAMDO@?$AAp?$AAl?$AAo?$AAc?$AAi?$AA?9?$AA?$DO?$AAl?$AAc?$AAo?$AAn?$AAv?$AA_?$AAm?$AAo?$AAn?$AA_?$AAr?$AAe?$AAf?$AAc?$AAo?$AAu?$AAn?$AAt?$AA?5?$AA?$DO?$AA?5?$AA0?$AA?$AA@ 004dd898     LIBCMTD:initmon.obj
 0003:0000d8e0       ??_C@_0DB@BECNGFDL@f?3?2dd?2vctools?2crt_bld?2self_x86?2c@ 004dd8e0     LIBCMTD:initmon.obj
 0003:0000d91c       ??_C@_1DG@NMBGBDM@?$AAp?$AAl?$AAo?$AAc?$AAi?$AA?9?$AA?$DO?$AAc?$AAt?$AAy?$AAp?$AAe?$AA1?$AA_?$AAr?$AAe?$AAf?$AAc?$AAo?$AAu?$AAn?$AAt?$AA?5?$AA?$DO?$AA?5?$AA0?$AA?$AA@ 004dd91c     LIBCMTD:initctyp.obj
 0003:0000d960       ??_C@_1GE@OCPKBDKE@?$AAf?$AA?3?$AA?2?$AAd?$AAd?$AA?2?$AAv?$AAc?$AAt?$AAo?$AAo?$AAl?$AAs?$AA?2?$AAc?$AAr?$AAt?$AA_?$AAb?$AAl?$AAd?$AA?2?$AAs?$AAe?$AAl?$AAf?$AA_?$AAx?$AA8?$AA6?$AA?2?$AAc@ 004dd960     LIBCMTD:initctyp.obj
 0003:0000d9d8       ??_C@_0DC@EHLBFILA@f?3?2dd?2vctools?2crt_bld?2self_x86?2c@ 004dd9d8     LIBCMTD:initctyp.obj
 0003:0000da14       ??_C@_1BE@NDMJHJJG@?$AAs?$AAt?$AAr?$AAn?$AAc?$AAp?$AAy?$AA_?$AAs?$AA?$AA@ 004dda14     LIBCMTD:strncpy_s.obj
 0003:0000da30       ??_C@_1GK@PAJJBKJF@?$AAf?$AA?3?$AA?2?$AAd?$AAd?$AA?2?$AAv?$AAc?$AAt?$AAo?$AAo?$AAl?$AAs?$AA?2?$AAc?$AAr?$AAt?$AA_?$AAb?$AAl?$AAd?$AA?2?$AAs?$AAe?$AAl?$AAf?$AA_?$AAx?$AA8?$AA6?$AA?2?$AAc@ 004dda30     LIBCMTD:strncpy_s.obj
 0003:0000dab0       ??_C@_1FA@MJKDNFFB@?$AA?$CI?$AAL?$AA?$CC?$AAS?$AAt?$AAr?$AAi?$AAn?$AAg?$AA?5?$AAi?$AAs?$AA?5?$AAn?$AAo?$AAt?$AA?5?$AAn?$AAu?$AAl?$AAl?$AA?5?$AAt?$AAe?$AAr?$AAm?$AAi?$AAn?$AAa?$AAt?$AAe?$AAd@ 004ddab0     LIBCMTD:strcat_s.obj
 0003:0000db10       ??_C@_1DM@FHLMIEG@?$AAS?$AAt?$AAr?$AAi?$AAn?$AAg?$AA?5?$AAi?$AAs?$AA?5?$AAn?$AAo?$AAt?$AA?5?$AAn?$AAu?$AAl?$AAl?$AA?5?$AAt?$AAe?$AAr?$AAm?$AAi?$AAn?$AAa?$AAt?$AAe?$AAd?$AA?$AA@ 004ddb10     LIBCMTD:strcat_s.obj
 0003:0000db58       ??_C@_1BC@HGPNAKGC@?$AAs?$AAt?$AAr?$AAc?$AAa?$AAt?$AA_?$AAs?$AA?$AA@ 004ddb58     LIBCMTD:strcat_s.obj
 0003:0000db70       ??_C@_1GI@NOKGIAGA@?$AAf?$AA?3?$AA?2?$AAd?$AAd?$AA?2?$AAv?$AAc?$AAt?$AAo?$AAo?$AAl?$AAs?$AA?2?$AAc?$AAr?$AAt?$AA_?$AAb?$AAl?$AAd?$AA?2?$AAs?$AAe?$AAl?$AAf?$AA_?$AAx?$AA8?$AA6?$AA?2?$AAc@ 004ddb70     LIBCMTD:strcat_s.obj
 0003:0000dbec       ??_C@_0O@FMJNFNKE@united?9states?$AA@ 004ddbec     LIBCMTD:getqloc.obj
 0003:0000dbfc       ??_C@_0P@NDHFFKCA@united?9kingdom?$AA@ 004ddbfc     LIBCMTD:getqloc.obj
 0003:0000dc10       ??_C@_0BC@HHDADLGF@trinidad?5?$CG?5tobago?$AA@ 004ddc10     LIBCMTD:getqloc.obj
 0003:0000dc28       ??_C@_0M@IOAEBDAC@south?9korea?$AA@ 004ddc28     LIBCMTD:getqloc.obj
 0003:0000dc38       ??_C@_0N@FIELFKIJ@south?9africa?$AA@ 004ddc38     LIBCMTD:getqloc.obj
 0003:0000dc48       ??_C@_0M@OPNDHCMC@south?5korea?$AA@ 004ddc48     LIBCMTD:getqloc.obj
 0003:0000dc58       ??_C@_0N@MDEOEPFI@south?5africa?$AA@ 004ddc58     LIBCMTD:getqloc.obj
 0003:0000dc68       ??_C@_06FKAPCJLB@slovak?$AA@ 004ddc68     LIBCMTD:getqloc.obj
 0003:0000dc70       ??_C@_0M@EFJANOAL@puerto?9rico?$AA@ 004ddc70     LIBCMTD:getqloc.obj
 0003:0000dc80       ??_C@_08PGOJKDAI@pr?9china?$AA@ 004ddc80     LIBCMTD:getqloc.obj
 0003:0000dc8c       ??_C@_08JHDOMCMI@pr?5china?$AA@ 004ddc8c     LIBCMTD:getqloc.obj
 0003:0000dc98       ??_C@_02JHCHFBLL@nz?$AA@   004ddc98     LIBCMTD:getqloc.obj
 0003:0000dc9c       ??_C@_0M@LINHDHKP@new?9zealand?$AA@ 004ddc9c     LIBCMTD:getqloc.obj
 0003:0000dcac       ??_C@_09IIIPPBDB@hong?9kong?$AA@ 004ddcac     LIBCMTD:getqloc.obj
 0003:0000dcb8       ??_C@_07HJLCKBG@holland?$AA@ 004ddcb8     LIBCMTD:getqloc.obj
 0003:0000dcc4       ??_C@_0O@LEHGMHAG@great?5britain?$AA@ 004ddcc4     LIBCMTD:getqloc.obj
 0003:0000dcd4       ??_C@_07FACOMELA@england?$AA@ 004ddcd4     LIBCMTD:getqloc.obj
 0003:0000dce0       ??_C@_05JIHCEICB@czech?$AA@ 004ddce0     LIBCMTD:getqloc.obj
 0003:0000dce8       ??_C@_05BBJOBLGB@china?$AA@ 004ddce8     LIBCMTD:getqloc.obj
 0003:0000dcf0       ??_C@_07GPKPHICP@britain?$AA@ 004ddcf0     LIBCMTD:getqloc.obj
 0003:0000dcfc       ??_C@_07MHIPBHMG@america?$AA@ 004ddcfc     LIBCMTD:getqloc.obj
 0003:0000dd08       ??_C@_03KIALPMKC@usa?$AA@  004ddd08     LIBCMTD:getqloc.obj
 0003:0000dd0c       ??_C@_02FGJGKGGD@us?$AA@   004ddd0c     LIBCMTD:getqloc.obj
 0003:0000dd10       ??_C@_02NEINDODK@uk?$AA@   004ddd10     LIBCMTD:getqloc.obj
 0003:0000dd14       ??_C@_05JMPCFJFJ@swiss?$AA@ 004ddd14     LIBCMTD:getqloc.obj
 0003:0000dd1c       ??_C@_0BA@HLOCPIOD@swedish?9finland?$AA@ 004ddd1c     LIBCMTD:getqloc.obj
 0003:0000dd30       ??_C@_0BC@PKCNIABK@spanish?9venezuela?$AA@ 004ddd30     LIBCMTD:getqloc.obj
 0003:0000dd48       ??_C@_0BA@GBHHMIJI@spanish?9uruguay?$AA@ 004ddd48     LIBCMTD:getqloc.obj
 0003:0000dd5c       ??_C@_0BE@BHDOHPMC@spanish?9puerto?5rico?$AA@ 004ddd5c     LIBCMTD:getqloc.obj
 0003:0000dd74       ??_C@_0N@KMOIDGGN@spanish?9peru?$AA@ 004ddd74     LIBCMTD:getqloc.obj
 0003:0000dd84       ??_C@_0BB@HMHLPGPH@spanish?9paraguay?$AA@ 004ddd84     LIBCMTD:getqloc.obj
 0003:0000dd98       ??_C@_0P@MCPKNGFD@spanish?9panama?$AA@ 004ddd98     LIBCMTD:getqloc.obj
 0003:0000ddac       ??_C@_0BC@IHOHGAIL@spanish?9nicaragua?$AA@ 004dddac     LIBCMTD:getqloc.obj
 0003:0000ddc4       ??_C@_0P@KLMJDNFJ@spanish?9modern?$AA@ 004dddc4     LIBCMTD:getqloc.obj
 0003:0000ddd8       ??_C@_0BA@BPAPGBCM@spanish?9mexican?$AA@ 004dddd8     LIBCMTD:getqloc.obj
 0003:0000ddec       ??_C@_0BB@PDECHHHE@spanish?9honduras?$AA@ 004dddec     LIBCMTD:getqloc.obj
 0003:0000de00       ??_C@_0BC@KLHKFGDB@spanish?9guatemala?$AA@ 004dde00     LIBCMTD:getqloc.obj
 0003:0000de18       ??_C@_0BE@MFOOKJAI@spanish?9el?5salvador?$AA@ 004dde18     LIBCMTD:getqloc.obj
 0003:0000de30       ??_C@_0BA@FCOKFPFC@spanish?9ecuador?$AA@ 004dde30     LIBCMTD:getqloc.obj
 0003:0000de44       ??_C@_0BL@PLMGIMOO@spanish?9dominican?5republic?$AA@ 004dde44     LIBCMTD:getqloc.obj
 0003:0000de64       ??_C@_0BD@HLGDNMHB@spanish?9costa?5rica?$AA@ 004dde64     LIBCMTD:getqloc.obj
 0003:0000de7c       ??_C@_0BB@PKCBKCPE@spanish?9colombia?$AA@ 004dde7c     LIBCMTD:getqloc.obj
 0003:0000de90       ??_C@_0O@MCBIJGNE@spanish?9chile?$AA@ 004dde90     LIBCMTD:getqloc.obj
 0003:0000dea0       ??_C@_0BA@BEFEIGJJ@spanish?9bolivia?$AA@ 004ddea0     LIBCMTD:getqloc.obj
 0003:0000deb4       ??_C@_0BC@EMECMPD@spanish?9argentina?$AA@ 004ddeb4     LIBCMTD:getqloc.obj
 0003:0000decc       ??_C@_0BF@EALFLENP@portuguese?9brazilian?$AA@ 004ddecc     LIBCMTD:getqloc.obj
 0003:0000dee8       ??_C@_0BC@HBLEBLNN@norwegian?9nynorsk?$AA@ 004ddee8     LIBCMTD:getqloc.obj
 0003:0000df00       ??_C@_0BB@HMACDDCK@norwegian?9bokmal?$AA@ 004ddf00     LIBCMTD:getqloc.obj
 0003:0000df14       ??_C@_09BAFFPPHE@norwegian?$AA@ 004ddf14     LIBCMTD:getqloc.obj
 0003:0000df20       ??_C@_0O@EAJFJDFG@italian?9swiss?$AA@ 004ddf20     LIBCMTD:getqloc.obj
 0003:0000df30       ??_C@_0O@CNOMPGD@irish?9english?$AA@ 004ddf30     LIBCMTD:getqloc.obj
 0003:0000df40       ??_C@_0N@EDHBGCKG@german?9swiss?$AA@ 004ddf40     LIBCMTD:getqloc.obj
 0003:0000df50       ??_C@_0BC@JACMHNBP@german?9luxembourg?$AA@ 004ddf50     LIBCMTD:getqloc.obj
 0003:0000df68       ??_C@_0BE@HBGMGFEG@german?9lichtenstein?$AA@ 004ddf68     LIBCMTD:getqloc.obj
 0003:0000df80       ??_C@_0BA@HKKBIBKL@german?9austrian?$AA@ 004ddf80     LIBCMTD:getqloc.obj
 0003:0000df94       ??_C@_0N@GCAEPEBK@french?9swiss?$AA@ 004ddf94     LIBCMTD:getqloc.obj
 0003:0000dfa4       ??_C@_0BC@DJFJJCK@french?9luxembourg?$AA@ 004ddfa4     LIBCMTD:getqloc.obj
 0003:0000dfbc       ??_C@_0BA@NNCEDFIC@french?9canadian?$AA@ 004ddfbc     LIBCMTD:getqloc.obj
 0003:0000dfd0       ??_C@_0P@CMPOCLM@french?9belgian?$AA@ 004ddfd0     LIBCMTD:getqloc.obj
 0003:0000dfe4       ??_C@_0M@GHHDJOK@english?9usa?$AA@ 004ddfe4     LIBCMTD:getqloc.obj
 0003:0000dff4       ??_C@_0L@PLDJKEIL@english?9us?$AA@ 004ddff4     LIBCMTD:getqloc.obj
 0003:0000e004       ??_C@_0L@HJCCDMNC@english?9uk?$AA@ 004de004     LIBCMTD:getqloc.obj
 0003:0000e014       ??_C@_0BK@CKLIAGJB@english?9trinidad?5y?5tobago?$AA@ 004de014     LIBCMTD:getqloc.obj
 0003:0000e034       ??_C@_0BF@JMJMGNNF@english?9south?5africa?$AA@ 004de034     LIBCMTD:getqloc.obj
 0003:0000e050       ??_C@_0L@DKIIFDFD@english?9nz?$AA@ 004de050     LIBCMTD:getqloc.obj
 0003:0000e060       ??_C@_0BA@ONHGJCLH@english?9jamaica?$AA@ 004de060     LIBCMTD:getqloc.obj
 0003:0000e074       ??_C@_0M@HJBGHOPO@english?9ire?$AA@ 004de074     LIBCMTD:getqloc.obj
 0003:0000e084       ??_C@_0BC@LFEKMIFB@english?9caribbean?$AA@ 004de084     LIBCMTD:getqloc.obj
 0003:0000e09c       ??_C@_0M@OLDPFKHI@english?9can?$AA@ 004de09c     LIBCMTD:getqloc.obj
 0003:0000e0ac       ??_C@_0P@OMDEHBMP@english?9belize?$AA@ 004de0ac     LIBCMTD:getqloc.obj
 0003:0000e0c0       ??_C@_0M@KFHFPFED@english?9aus?$AA@ 004de0c0     LIBCMTD:getqloc.obj
 0003:0000e0d0       ??_C@_0BB@MNMBKDFE@english?9american?$AA@ 004de0d0     LIBCMTD:getqloc.obj
 0003:0000e0e4       ??_C@_0O@KIDLNNBA@dutch?9belgian?$AA@ 004de0e4     LIBCMTD:getqloc.obj
 0003:0000e0f4       ??_C@_0BE@JBKABBMH@chinese?9traditional?$AA@ 004de0f4     LIBCMTD:getqloc.obj
 0003:0000e10c       ??_C@_0BC@MJJMPKCG@chinese?9singapore?$AA@ 004de10c     LIBCMTD:getqloc.obj
 0003:0000e124       ??_C@_0BD@FDKADDCP@chinese?9simplified?$AA@ 004de124     LIBCMTD:getqloc.obj
 0003:0000e13c       ??_C@_0BB@DBEFDDME@chinese?9hongkong?$AA@ 004de13c     LIBCMTD:getqloc.obj
 0003:0000e150       ??_C@_07DHNMFMCI@chinese?$AA@ 004de150     LIBCMTD:getqloc.obj
 0003:0000e15c       ??_C@_03FNDDCHI@chi?$AA@   004de15c     LIBCMTD:getqloc.obj
 0003:0000e160       ??_C@_03BMMIADDJ@chh?$AA@  004de160     LIBCMTD:getqloc.obj
 0003:0000e164       ??_C@_08OAIPJDGI@canadian?$AA@ 004de164     LIBCMTD:getqloc.obj
 0003:0000e170       ??_C@_07HBPMNPNJ@belgian?$AA@ 004de170     LIBCMTD:getqloc.obj
 0003:0000e17c       ??_C@_0L@OEKOPBEL@australian?$AA@ 004de17c     LIBCMTD:getqloc.obj
 0003:0000e18c       ??_C@_0BB@MEIMBEDG@american?9english?$AA@ 004de18c     LIBCMTD:getqloc.obj
 0003:0000e1a0       ??_C@_0BB@DFMDPDGB@american?5english?$AA@ 004de1a0     LIBCMTD:getqloc.obj
 0003:0000e1b4       ??_C@_08IJLOKOLL@american?$AA@ 004de1b4     LIBCMTD:getqloc.obj
 0003:0000e1c0       ___rg_language             004de1c0     LIBCMTD:getqloc.obj
 0003:0000e430       ___rg_country              004de430     LIBCMTD:getqloc.obj
 0003:0000e50c       ___rglangidNotDefault      004de50c     LIBCMTD:getqloc.obj
 0003:0000e524       ??_C@_0BC@NFIEMBLL@Norwegian?9Nynorsk?$AA@ 004de524     LIBCMTD:getqloc.obj
 0003:0000e540       ??_C@_1OM@OECHDGCF@?$AAs?$AAt?$AAr?$AAc?$AAp?$AAy?$AA_?$AAs?$AA?$CI?$AAl?$AAp?$AAO?$AAu?$AAt?$AAS?$AAt?$AAr?$AA?9?$AA?$DO?$AAs?$AAz?$AAL?$AAa?$AAn?$AAg?$AAu?$AAa?$AAg?$AAe?$AA?0?$AA?5?$AA?$CI@ 004de540     LIBCMTD:getqloc.obj
 0003:0000e65c       ??_C@_1CO@NJACLALJ@?$AA_?$AA_?$AAg?$AAe?$AAt?$AA_?$AAq?$AAu?$AAa?$AAl?$AAi?$AAf?$AAi?$AAe?$AAd?$AA_?$AAl?$AAo?$AAc?$AAa?$AAl?$AAe?$AA?$AA@ 004de65c     LIBCMTD:getqloc.obj
 0003:0000e698       ??_C@_1GC@FECJGAE@?$AAf?$AA?3?$AA?2?$AAd?$AAd?$AA?2?$AAv?$AAc?$AAt?$AAo?$AAo?$AAl?$AAs?$AA?2?$AAc?$AAr?$AAt?$AA_?$AAb?$AAl?$AAd?$AA?2?$AAs?$AAe?$AAl?$AAf?$AA_?$AAx?$AA8?$AA6?$AA?2?$AAc@ 004de698     LIBCMTD:getqloc.obj
 0003:0000e710       ??_C@_03NFKLAGEF@OCP?$AA@  004de710     LIBCMTD:getqloc.obj
 0003:0000e714       ??_C@_01GBGANLPD@0?$AA@    004de714     LIBCMTD:getqloc.obj
 0003:0000e718       ??_C@_03DFHEHBHG@ACP?$AA@  004de718     LIBCMTD:getqloc.obj
 0003:0000e71c       ??_C@_0DC@IHGBBJOH@f?3?2dd?2vctools?2crt_bld?2self_x86?2c@ 004de71c     LIBCMTD:convrtcp.obj
 0003:0000e758       ??_C@_1CA@LFDHAMEM@?$AA_?$AAs?$AAe?$AAt?$AA_?$AAe?$AAr?$AAr?$AAo?$AAr?$AA_?$AAm?$AAo?$AAd?$AAe?$AA?$AA@ 004de758     LIBCMTD:errmode.obj
 0003:0000e780       ??_C@_1GC@FGMGFCNB@?$AAf?$AA?3?$AA?2?$AAd?$AAd?$AA?2?$AAv?$AAc?$AAt?$AAo?$AAo?$AAl?$AAs?$AA?2?$AAc?$AAr?$AAt?$AA_?$AAb?$AAl?$AAd?$AA?2?$AAs?$AAe?$AAl?$AAf?$AA_?$AAx?$AA8?$AA6?$AA?2?$AAc@ 004de780     LIBCMTD:errmode.obj
 0003:0000e7f8       ??_C@_1DE@BCNCAIK@?$AA?$CI?$AA?$CC?$AAI?$AAn?$AAv?$AAa?$AAl?$AAi?$AAd?$AA?5?$AAe?$AAr?$AAr?$AAo?$AAr?$AA_?$AAm?$AAo?$AAd?$AAe?$AA?$CC?$AA?0?$AA?5?$AA0?$AA?$CJ?$AA?$AA@ 004de7f8     LIBCMTD:errmode.obj
 0003:0000e838       ??_C@_0BK@CIDNPOGP@GetUserObjectInformationA?$AA@ 004de838     LIBCMTD:crtmbox.obj
 0003:0000e858       ??_C@_0M@CHKKJDAI@MessageBoxA?$AA@ 004de858     LIBCMTD:crtmbox.obj
 0003:0000e868       ??_C@_0L@NDEGIDAG@USER32?4DLL?$AA@ 004de868     LIBCMTD:crtmbox.obj
 0003:0000e878       ??_C@_0BC@JEAENNKH@SystemFunction036?$AA@ 004de878     LIBCMTD:rand_s.obj
 0003:0000e890       ??_C@_1GA@EBEDGGGB@?$AA?$CI?$AA?$CC?$AAr?$AAa?$AAn?$AAd?$AA_?$AAs?$AA?5?$AAi?$AAs?$AA?5?$AAn?$AAo?$AAt?$AA?5?$AAa?$AAv?$AAa?$AAi?$AAl?$AAa?$AAb?$AAl?$AAe?$AA?5?$AAo?$AAn?$AA?5?$AAt?$AAh?$AAi@ 004de890     LIBCMTD:rand_s.obj
 0003:0000e904       ??_C@_0N@JJPEKNFO@ADVAPI32?4DLL?$AA@ 004de904     LIBCMTD:rand_s.obj
 0003:0000e914       ??_C@_1O@IJGPPOGF@?$AAr?$AAa?$AAn?$AAd?$AA_?$AAs?$AA?$AA@ 004de914     LIBCMTD:rand_s.obj
 0003:0000e928       ??_C@_1GA@HBGBBKCD@?$AAf?$AA?3?$AA?2?$AAd?$AAd?$AA?2?$AAv?$AAc?$AAt?$AAo?$AAo?$AAl?$AAs?$AA?2?$AAc?$AAr?$AAt?$AA_?$AAb?$AAl?$AAd?$AA?2?$AAs?$AAe?$AAl?$AAf?$AA_?$AAx?$AA8?$AA6?$AA?2?$AAc@ 004de928     LIBCMTD:rand_s.obj
 0003:0000e99c       ??_C@_1CK@GFDNDKK@?$AA_?$AAR?$AAa?$AAn?$AAd?$AAo?$AAm?$AAV?$AAa?$AAl?$AAu?$AAe?$AA?5?$AA?$CB?$AA?$DN?$AA?5?$AAN?$AAU?$AAL?$AAL?$AA?$AA@ 004de99c     LIBCMTD:rand_s.obj
 0003:0000e9d0       ??_C@_1HO@MLMGPAFH@?$AA?$CI?$AA?$CC?$AAi?$AAn?$AAc?$AAo?$AAn?$AAs?$AAi?$AAs?$AAt?$AAe?$AAn?$AAt?$AA?5?$AAI?$AAO?$AAB?$AA?5?$AAf?$AAi?$AAe?$AAl?$AAd?$AAs?$AA?$CC?$AA?0?$AA?5?$AAs?$AAt?$AAr?$AAe@ 004de9d0     LIBCMTD:_flsbuf.obj
 0003:0000ea68       ??_C@_1GC@GNCCMPNN@?$AAf?$AA?3?$AA?2?$AAd?$AAd?$AA?2?$AAv?$AAc?$AAt?$AAo?$AAo?$AAl?$AAs?$AA?2?$AAc?$AAr?$AAt?$AA_?$AAb?$AAl?$AAd?$AA?2?$AAs?$AAe?$AAl?$AAf?$AA_?$AAx?$AA8?$AA6?$AA?2?$AAc@ 004dea68     LIBCMTD:_flsbuf.obj
 0003:0000eae0       ??_C@_1BI@MFCLPIBM@?$AAs?$AAt?$AAr?$AA?5?$AA?$CB?$AA?$DN?$AA?5?$AAN?$AAU?$AAL?$AAL?$AA?$AA@ 004deae0     LIBCMTD:_flsbuf.obj
 0003:0000eafc       ??_C@_1O@CEDCILHN@?$AA?$CI?$AAn?$AAu?$AAl?$AAl?$AA?$CJ?$AA?$AA@ 004deafc     LIBCMTD:output.obj
 0003:0000eb0c       ??_C@_06OJHGLDPL@?$CInull?$CJ?$AA@ 004deb0c     LIBCMTD:output.obj
 0003:0000eb18       ___lookuptable             004deb18     LIBCMTD:output.obj
 0003:0000eb84       ??_C@_0DA@NFBEBPEE@f?3?2dd?2vctools?2crt_bld?2self_x86?2c@ 004deb84     LIBCMTD:output.obj
 0003:0000ebc0       ??_C@_1EK@PNGFDECN@?$AA?$CI?$AA?$CC?$AA?8?$AAn?$AA?8?$AA?5?$AAf?$AAo?$AAr?$AAm?$AAa?$AAt?$AA?5?$AAs?$AAp?$AAe?$AAc?$AAi?$AAf?$AAi?$AAe?$AAr?$AA?5?$AAd?$AAi?$AAs?$AAa?$AAb?$AAl?$AAe?$AAd?$AA?$CC@ 004debc0     LIBCMTD:output.obj
 0003:0000ec18       ??_C@_1CC@IFFHEMNF@?$AA?$CI?$AAc?$AAh?$AA?5?$AA?$CB?$AA?$DN?$AA?5?$AA_?$AAT?$AA?$CI?$AA?8?$AA?2?$AA0?$AA?8?$AA?$CJ?$AA?$CJ?$AA?$AA@ 004dec18     LIBCMTD:output.obj
 0003:0000ec40       ??_C@_1BAA@ODEGEDCK@?$AA?$CI?$AA?5?$AA?$CI?$AA_?$AAS?$AAt?$AAr?$AAe?$AAa?$AAm?$AA?9?$AA?$DO?$AA_?$AAf?$AAl?$AAa?$AAg?$AA?5?$AA?$CG?$AA?5?$AA_?$AAI?$AAO?$AAS?$AAT?$AAR?$AAG?$AA?$CJ?$AA?5?$AA?$HM?$AA?$HM?$AA?5@ 004dec40     LIBCMTD:output.obj
 0003:0000ed74       ??_C@_1BE@IONLIDNC@?$AA_?$AAo?$AAu?$AAt?$AAp?$AAu?$AAt?$AA_?$AAl?$AA?$AA@ 004ded74     LIBCMTD:output.obj
 0003:0000ed90       ??_C@_1GA@HHFOFBLN@?$AAf?$AA?3?$AA?2?$AAd?$AAd?$AA?2?$AAv?$AAc?$AAt?$AAo?$AAo?$AAl?$AAs?$AA?2?$AAc?$AAr?$AAt?$AA_?$AAb?$AAl?$AAd?$AA?2?$AAs?$AAe?$AAl?$AAf?$AA_?$AAx?$AA8?$AA6?$AA?2?$AAc@ 004ded90     LIBCMTD:output.obj
 0003:0000ee04       ??_C@_1CC@FADMNIL@?$AA?$CI?$AAs?$AAt?$AAr?$AAe?$AAa?$AAm?$AA?5?$AA?$CB?$AA?$DN?$AA?5?$AAN?$AAU?$AAL?$AAL?$AA?$CJ?$AA?$AA@ 004dee04     LIBCMTD:output.obj
 0003:0000ee2c       ??_C@_1BI@IGILPKD@?$AA_?$AAv?$AAs?$AAp?$AAr?$AAi?$AAn?$AAt?$AAf?$AA_?$AAl?$AA?$AA@ 004dee2c     LIBCMTD:vsprintf.obj
 0003:0000ee48       ??_C@_1GE@DPADKNCG@?$AAf?$AA?3?$AA?2?$AAd?$AAd?$AA?2?$AAv?$AAc?$AAt?$AAo?$AAo?$AAl?$AAs?$AA?2?$AAc?$AAr?$AAt?$AA_?$AAb?$AAl?$AAd?$AA?2?$AAs?$AAe?$AAl?$AAf?$AA_?$AAx?$AA8?$AA6?$AA?2?$AAc@ 004dee48     LIBCMTD:vsprintf.obj
 0003:0000eec0       ??_C@_1CE@HMKDJHB@?$AA_?$AAv?$AAs?$AAc?$AAp?$AAr?$AAi?$AAn?$AAt?$AAf?$AA_?$AAh?$AAe?$AAl?$AAp?$AAe?$AAr?$AA?$AA@ 004deec0     LIBCMTD:vsprintf.obj
 0003:0000eef0       ??_C@_1EC@FABAOFFO@?$AA?$CI?$AAc?$AAo?$AAu?$AAn?$AAt?$AA?5?$AA?$DN?$AA?$DN?$AA?5?$AA0?$AA?$CJ?$AA?5?$AA?$HM?$AA?$HM?$AA?5?$AA?$CI?$AAs?$AAt?$AAr?$AAi?$AAn?$AAg?$AA?5?$AA?$CB?$AA?$DN?$AA?5?$AAN?$AAU?$AAL?$AAL?$AA?$CJ@ 004deef0     LIBCMTD:vsnprnc.obj
 0003:0000ef40       ??_C@_1CE@PCFPEIFI@?$AA_?$AAv?$AAs?$AAn?$AAp?$AAr?$AAi?$AAn?$AAt?$AAf?$AA_?$AAh?$AAe?$AAl?$AAp?$AAe?$AAr?$AA?$AA@ 004def40     LIBCMTD:vsnprnc.obj
 0003:0000ef6c       ??_C@_1DA@HPBFKMEB@?$AA?$CI?$AA?$CC?$AAB?$AAu?$AAf?$AAf?$AAe?$AAr?$AA?5?$AAt?$AAo?$AAo?$AA?5?$AAs?$AAm?$AAa?$AAl?$AAl?$AA?$CC?$AA?0?$AA?5?$AA0?$AA?$CJ?$AA?$AA@ 004def6c     LIBCMTD:vsnprnc.obj
 0003:0000efa8       ??_C@_1EE@OKCKIGFK@?$AAs?$AAt?$AAr?$AAi?$AAn?$AAg?$AA?5?$AA?$CB?$AA?$DN?$AA?5?$AAN?$AAU?$AAL?$AAL?$AA?5?$AA?$CG?$AA?$CG?$AA?5?$AAs?$AAi?$AAz?$AAe?$AAI?$AAn?$AAB?$AAy?$AAt?$AAe?$AAs?$AA?5?$AA?$DO?$AA?5@ 004defa8     LIBCMTD:vsnprnc.obj
 0003:0000effc       ??_C@_1BM@BLJALHEF@?$AA_?$AAv?$AAs?$AAp?$AAr?$AAi?$AAn?$AAt?$AAf?$AA_?$AAs?$AA_?$AAl?$AA?$AA@ 004deffc     LIBCMTD:vsnprnc.obj
 0003:0000f020       ??_C@_1BO@MLMCMBKN@?$AAf?$AAo?$AAr?$AAm?$AAa?$AAt?$AA?5?$AA?$CB?$AA?$DN?$AA?5?$AAN?$AAU?$AAL?$AAL?$AA?$AA@ 004df020     LIBCMTD:vsnprnc.obj
 0003:0000f044       ??_C@_1BO@MMPELNIM@?$AA_?$AAv?$AAs?$AAn?$AAp?$AAr?$AAi?$AAn?$AAt?$AAf?$AA_?$AAs?$AA_?$AAl?$AA?$AA@ 004df044     LIBCMTD:vsnprnc.obj
 0003:0000f068       ??_C@_1CG@JEHFHLNG@?$AA_?$AAm?$AAb?$AAs?$AAt?$AAo?$AAw?$AAc?$AAs?$AA_?$AAl?$AA_?$AAh?$AAe?$AAl?$AAp?$AAe?$AAr?$AA?$AA@ 004df068     LIBCMTD:mbstowcs.obj
 0003:0000f098       ??_C@_1GE@LCCDHBMH@?$AAf?$AA?3?$AA?2?$AAd?$AAd?$AA?2?$AAv?$AAc?$AAt?$AAo?$AAo?$AAl?$AAs?$AA?2?$AAc?$AAr?$AAt?$AA_?$AAb?$AAl?$AAd?$AA?2?$AAs?$AAe?$AAl?$AAf?$AA_?$AAx?$AA8?$AA6?$AA?2?$AAc@ 004df098     LIBCMTD:mbstowcs.obj
 0003:0000f110       ??_C@_1BE@EEKACIGI@?$AAs?$AA?5?$AA?$CB?$AA?$DN?$AA?5?$AAN?$AAU?$AAL?$AAL?$AA?$AA@ 004df110     LIBCMTD:mbstowcs.obj
 0003:0000f128       ??_C@_1CO@JNPEPJAL@?$AAr?$AAe?$AAt?$AAs?$AAi?$AAz?$AAe?$AA?5?$AA?$DM?$AA?$DN?$AA?5?$AAs?$AAi?$AAz?$AAe?$AAI?$AAn?$AAW?$AAo?$AAr?$AAd?$AAs?$AA?$AA@ 004df128     LIBCMTD:mbstowcs.obj
 0003:0000f160       ??_C@_1CM@LLECFMFH@?$AAb?$AAu?$AAf?$AAf?$AAe?$AAr?$AAS?$AAi?$AAz?$AAe?$AA?5?$AA?$DM?$AA?$DN?$AA?5?$AAI?$AAN?$AAT?$AA_?$AAM?$AAA?$AAX?$AA?$AA@ 004df160     LIBCMTD:mbstowcs.obj
 0003:0000f194       ??_C@_1BM@PHENIGHD@?$AA_?$AAm?$AAb?$AAs?$AAt?$AAo?$AAw?$AAc?$AAs?$AA_?$AAs?$AA_?$AAl?$AA?$AA@ 004df194     LIBCMTD:mbstowcs.obj
 0003:0000f1b8       ??_C@_1JA@JKDFMOPO@?$AA?$CI?$AAp?$AAw?$AAc?$AAs?$AA?5?$AA?$DN?$AA?$DN?$AA?5?$AAN?$AAU?$AAL?$AAL?$AA?5?$AA?$CG?$AA?$CG?$AA?5?$AAs?$AAi?$AAz?$AAe?$AAI?$AAn?$AAW?$AAo?$AAr?$AAd?$AAs?$AA?5?$AA?$DN?$AA?$DN?$AA?5@ 004df1b8     LIBCMTD:mbstowcs.obj
 0003:0000f264       ??_C@_1CM@HABGDNLJ@?$AAl?$AAe?$AAn?$AAg?$AAt?$AAh?$AA?5?$AA?$DM?$AA?5?$AAs?$AAi?$AAz?$AAe?$AAI?$AAn?$AAT?$AAC?$AAh?$AAa?$AAr?$AAs?$AA?$AA@ 004df264     LIBCMTD:xtoas.obj
 0003:0000f298       ??_C@_1DE@PCJGDBBD@?$AA2?$AA?5?$AA?$DM?$AA?$DN?$AA?5?$AAr?$AAa?$AAd?$AAi?$AAx?$AA?5?$AA?$CG?$AA?$CG?$AA?5?$AAr?$AAa?$AAd?$AAi?$AAx?$AA?5?$AA?$DM?$AA?$DN?$AA?5?$AA3?$AA6?$AA?$AA@ 004df298     LIBCMTD:xtoas.obj
 0003:0000f2d8       ??_C@_1FA@MKGGAGEI@?$AAs?$AAi?$AAz?$AAe?$AAI?$AAn?$AAT?$AAC?$AAh?$AAa?$AAr?$AAs?$AA?5?$AA?$DO?$AA?5?$AA?$CI?$AAs?$AAi?$AAz?$AAe?$AA_?$AAt?$AA?$CJ?$AA?$CI?$AAi?$AAs?$AA_?$AAn?$AAe?$AAg?$AA?5?$AA?$DP@ 004df2d8     LIBCMTD:xtoas.obj
 0003:0000f338       ??_C@_1CC@JNJFIMGE@?$AAs?$AAi?$AAz?$AAe?$AAI?$AAn?$AAT?$AAC?$AAh?$AAa?$AAr?$AAs?$AA?5?$AA?$DO?$AA?5?$AA0?$AA?$AA@ 004df338     LIBCMTD:xtoas.obj
 0003:0000f360       ??_C@_1O@GIMBNLEI@?$AAx?$AAt?$AAo?$AAa?$AA_?$AAs?$AA?$AA@ 004df360     LIBCMTD:xtoas.obj
 0003:0000f370       ??_C@_1FM@MFCBFCGB@?$AAf?$AA?3?$AA?2?$AAd?$AAd?$AA?2?$AAv?$AAc?$AAt?$AAo?$AAo?$AAl?$AAs?$AA?2?$AAc?$AAr?$AAt?$AA_?$AAb?$AAl?$AAd?$AA?2?$AAs?$AAe?$AAl?$AAf?$AA_?$AAx?$AA8?$AA6?$AA?2?$AAc@ 004df370     LIBCMTD:xtoas.obj
 0003:0000f3e0       ??_C@_1BI@ICGGMGLK@?$AAb?$AAu?$AAf?$AA?5?$AA?$CB?$AA?$DN?$AA?5?$AAN?$AAU?$AAL?$AAL?$AA?$AA@ 004df3e0     LIBCMTD:xtoas.obj
 0003:0000f3fc       ??_C@_1BC@MJJNBNFN@?$AAx?$AA6?$AA4?$AAt?$AAo?$AAa?$AA_?$AAs?$AA?$AA@ 004df3fc     LIBCMTD:xtoas.obj
 0003:0000f414       ??_C@_1CG@LLJCAOHF@?$AA_?$AAw?$AAc?$AAs?$AAt?$AAo?$AAm?$AAb?$AAs?$AA_?$AAl?$AA_?$AAh?$AAe?$AAl?$AAp?$AAe?$AAr?$AA?$AA@ 004df414     LIBCMTD:wcstombs.obj
 0003:0000f448       ??_C@_1GE@OAENIBOD@?$AAf?$AA?3?$AA?2?$AAd?$AAd?$AA?2?$AAv?$AAc?$AAt?$AAo?$AAo?$AAl?$AAs?$AA?2?$AAc?$AAr?$AAt?$AA_?$AAb?$AAl?$AAd?$AA?2?$AAs?$AAe?$AAl?$AAf?$AA_?$AAx?$AA8?$AA6?$AA?2?$AAc@ 004df448     LIBCMTD:wcstombs.obj
 0003:0000f4c0       ??_C@_1BK@OIBENBPM@?$AAp?$AAw?$AAc?$AAs?$AA?5?$AA?$CB?$AA?$DN?$AA?5?$AAN?$AAU?$AAL?$AAL?$AA?$AA@ 004df4c0     LIBCMTD:wcstombs.obj
 0003:0000f4e0       ??_C@_1CM@KEOGBFLI@?$AAs?$AAi?$AAz?$AAe?$AAI?$AAn?$AAB?$AAy?$AAt?$AAe?$AAs?$AA?5?$AA?$DO?$AA?5?$AAr?$AAe?$AAt?$AAs?$AAi?$AAz?$AAe?$AA?$AA@ 004df4e0     LIBCMTD:wcstombs.obj
 0003:0000f514       ??_C@_1BM@BDMCLLDL@?$AA_?$AAw?$AAc?$AAs?$AAt?$AAo?$AAm?$AAb?$AAs?$AA_?$AAs?$AA_?$AAl?$AA?$AA@ 004df514     LIBCMTD:wcstombs.obj
 0003:0000f538       ??_C@_1IM@MFGKHGBP@?$AA?$CI?$AAd?$AAs?$AAt?$AA?5?$AA?$CB?$AA?$DN?$AA?5?$AAN?$AAU?$AAL?$AAL?$AA?5?$AA?$CG?$AA?$CG?$AA?5?$AAs?$AAi?$AAz?$AAe?$AAI?$AAn?$AAB?$AAy?$AAt?$AAe?$AAs?$AA?5?$AA?$DO?$AA?5?$AA0?$AA?$CJ@ 004df538     LIBCMTD:wcstombs.obj
 0003:0000f5e0       ??_C@_1BC@PLIEPKPJ@?$AAw?$AAc?$AAs?$AAc?$AAa?$AAt?$AA_?$AAs?$AA?$AA@ 004df5e0     LIBCMTD:wcscat_s.obj
 0003:0000f5f8       ??_C@_1CE@IGKFIJFD@?$AA_?$AAv?$AAs?$AAw?$AAp?$AAr?$AAi?$AAn?$AAt?$AAf?$AA_?$AAh?$AAe?$AAl?$AAp?$AAe?$AAr?$AA?$AA@ 004df5f8     LIBCMTD:vswprnc.obj
 0003:0000f628       ??_C@_1GE@KINELFI@?$AAf?$AA?3?$AA?2?$AAd?$AAd?$AA?2?$AAv?$AAc?$AAt?$AAo?$AAo?$AAl?$AAs?$AA?2?$AAc?$AAr?$AAt?$AA_?$AAb?$AAl?$AAd?$AA?2?$AAs?$AAe?$AAl?$AAf?$AA_?$AAx?$AA8?$AA6?$AA?2?$AAc@ 004df628     LIBCMTD:vswprnc.obj
 0003:0000f6a0       ??_C@_1EE@MPCHJFGP@?$AAs?$AAt?$AAr?$AAi?$AAn?$AAg?$AA?5?$AA?$CB?$AA?$DN?$AA?5?$AAN?$AAU?$AAL?$AAL?$AA?5?$AA?$CG?$AA?$CG?$AA?5?$AAs?$AAi?$AAz?$AAe?$AAI?$AAn?$AAW?$AAo?$AAr?$AAd?$AAs?$AA?5?$AA?$DO?$AA?5@ 004df6a0     LIBCMTD:vswprnc.obj
 0003:0000f6f4       ??_C@_1BO@OALHJLCI@?$AA_?$AAv?$AAs?$AAw?$AAp?$AAr?$AAi?$AAn?$AAt?$AAf?$AA_?$AAs?$AA_?$AAl?$AA?$AA@ 004df6f4     LIBCMTD:vswprnc.obj
 0003:0000f718       ??_C@_1CA@BKFKMJFF@?$AA_?$AAv?$AAs?$AAn?$AAw?$AAp?$AAr?$AAi?$AAn?$AAt?$AAf?$AA_?$AAs?$AA_?$AAl?$AA?$AA@ 004df718     LIBCMTD:vswprnc.obj
 0003:0000f740       ??_C@_1O@NCBFODOE@?$AAx?$AAt?$AAo?$AAw?$AA_?$AAs?$AA?$AA@ 004df740     LIBCMTD:xtows.obj
 0003:0000f750       ??_C@_1BC@HDEJCFPB@?$AAx?$AA6?$AA4?$AAt?$AAo?$AAw?$AA_?$AAs?$AA?$AA@ 004df750     LIBCMTD:xtows.obj
 0003:0000f768       ??_C@_1BG@BBCDFOMA@?$AA_?$AAw?$AAo?$AAu?$AAt?$AAp?$AAu?$AAt?$AA_?$AAl?$AA?$AA@ 004df768     LIBCMTD:woutput.obj
 0003:0000f784       ??_C@_1BK@EPLNBKAK@?$AA_?$AAv?$AAs?$AAw?$AAp?$AAr?$AAi?$AAn?$AAt?$AAf?$AA_?$AAl?$AA?$AA@ 004df784     LIBCMTD:vswprint.obj
 0003:0000f7a4       ??_C@_1CG@IMMIEPNA@?$AA_?$AAv?$AAs?$AAc?$AAw?$AAp?$AAr?$AAi?$AAn?$AAt?$AAf?$AA_?$AAh?$AAe?$AAl?$AAp?$AAe?$AAr?$AA?$AA@ 004df7a4     LIBCMTD:vswprint.obj
 0003:0000f7d4       ___dnames                  004df7d4     LIBCMTD:timeset.obj
 0003:0000f7ec       ___mnames                  004df7ec     LIBCMTD:timeset.obj
 0003:0000f820       ??_C@_1BM@FIMHBHEB@?$AA_?$AAg?$AAe?$AAt?$AA_?$AAd?$AAa?$AAy?$AAl?$AAi?$AAg?$AAh?$AAt?$AA?$AA@ 004df820     LIBCMTD:timeset.obj
 0003:0000f848       ??_C@_1GC@NEGFAKA@?$AAf?$AA?3?$AA?2?$AAd?$AAd?$AA?2?$AAv?$AAc?$AAt?$AAo?$AAo?$AAl?$AAs?$AA?2?$AAc?$AAr?$AAt?$AA_?$AAb?$AAl?$AAd?$AA?2?$AAs?$AAe?$AAl?$AAf?$AA_?$AAx?$AA8?$AA6?$AA?2?$AAc@ 004df848     LIBCMTD:timeset.obj
 0003:0000f8c0       ??_C@_1CI@MKJEHFPG@?$AA?$CI?$AA_?$AAD?$AAa?$AAy?$AAl?$AAi?$AAg?$AAh?$AAt?$AA?5?$AA?$CB?$AA?$DN?$AA?5?$AAN?$AAU?$AAL?$AAL?$AA?$CJ?$AA?$AA@ 004df8c0     LIBCMTD:timeset.obj
 0003:0000f8f0       ??_C@_1BK@EMODDHEE@?$AA_?$AAg?$AAe?$AAt?$AA_?$AAd?$AAs?$AAt?$AAb?$AAi?$AAa?$AAs?$AA?$AA@ 004df8f0     LIBCMTD:timeset.obj
 0003:0000f910       ??_C@_1EC@PKDJPAAB@?$AA?$CI?$AA_?$AAD?$AAa?$AAy?$AAl?$AAi?$AAg?$AAh?$AAt?$AA_?$AAs?$AAa?$AAv?$AAi?$AAn?$AAg?$AAs?$AA_?$AAb?$AAi?$AAa?$AAs?$AA?5?$AA?$CB?$AA?$DN?$AA?5?$AAN?$AAU?$AAL?$AAL?$AA?$CJ@ 004df910     LIBCMTD:timeset.obj
 0003:0000f960       ??_C@_1BM@MGEAKPEJ@?$AA_?$AAg?$AAe?$AAt?$AA_?$AAt?$AAi?$AAm?$AAe?$AAz?$AAo?$AAn?$AAe?$AA?$AA@ 004df960     LIBCMTD:timeset.obj
 0003:0000f984       ??_C@_1CI@PODJJGAL@?$AA?$CI?$AA_?$AAT?$AAi?$AAm?$AAe?$AAz?$AAo?$AAn?$AAe?$AA?5?$AA?$CB?$AA?$DN?$AA?5?$AAN?$AAU?$AAL?$AAL?$AA?$CJ?$AA?$AA@ 004df984     LIBCMTD:timeset.obj
 0003:0000f9b4       ??_C@_1DG@HLGKANIP@?$AA_?$AAI?$AAn?$AAd?$AAe?$AAx?$AA?5?$AA?$DN?$AA?$DN?$AA?5?$AA0?$AA?5?$AA?$HM?$AA?$HM?$AA?5?$AA_?$AAI?$AAn?$AAd?$AAe?$AAx?$AA?5?$AA?$DN?$AA?$DN?$AA?5?$AA1?$AA?$AA@ 004df9b4     LIBCMTD:timeset.obj
 0003:0000f9f4       ??_C@_1CK@GBKHKEI@?$AA_?$AAR?$AAe?$AAt?$AAu?$AAr?$AAn?$AAV?$AAa?$AAl?$AAu?$AAe?$AA?5?$AA?$CB?$AA?$DN?$AA?5?$AAN?$AAU?$AAL?$AAL?$AA?$AA@ 004df9f4     LIBCMTD:timeset.obj
 0003:0000fa28       ??_C@_1BI@BHCKCCFA@?$AA_?$AAg?$AAe?$AAt?$AA_?$AAt?$AAz?$AAn?$AAa?$AAm?$AAe?$AA?$AA@ 004dfa28     LIBCMTD:timeset.obj
 0003:0000fa48       ??_C@_1KA@POFLNEC@?$AA?$CI?$AA_?$AAB?$AAu?$AAf?$AAf?$AAe?$AAr?$AA?5?$AA?$CB?$AA?$DN?$AA?5?$AAN?$AAU?$AAL?$AAL?$AA?5?$AA?$CG?$AA?$CG?$AA?5?$AA_?$AAS?$AAi?$AAz?$AAe?$AAI?$AAn?$AAB?$AAy?$AAt?$AAe?$AAs@ 004dfa48     LIBCMTD:timeset.obj
 0003:0000fb08       ??_C@_1EA@GEPBEDLJ@?$AAs?$AAt?$AAr?$AAn?$AAc?$AAp?$AAy?$AA_?$AAs?$AA?$CI?$AAt?$AAz?$AAn?$AAa?$AAm?$AAe?$AA?$FL?$AA1?$AA?$FN?$AA?0?$AA?5?$AA6?$AA4?$AA?0?$AA?5?$AAT?$AAZ?$AA?0?$AA?5?$AA3?$AA?$CJ?$AA?$AA@ 004dfb08     LIBCMTD:tzset.obj
 0003:0000fb58       ??_C@_1EA@FIJBKALB@?$AAs?$AAt?$AAr?$AAn?$AAc?$AAp?$AAy?$AA_?$AAs?$AA?$CI?$AAt?$AAz?$AAn?$AAa?$AAm?$AAe?$AA?$FL?$AA0?$AA?$FN?$AA?0?$AA?5?$AA6?$AA4?$AA?0?$AA?5?$AAT?$AAZ?$AA?0?$AA?5?$AA3?$AA?$CJ?$AA?$AA@ 004dfb58     LIBCMTD:tzset.obj
 0003:0000fba8       ??_C@_1EK@MCAIMDPB@?$AAs?$AAt?$AAr?$AAc?$AAp?$AAy?$AA_?$AAs?$AA?$CI?$AAl?$AAa?$AAs?$AAt?$AAT?$AAZ?$AA?0?$AA?5?$AAs?$AAt?$AAr?$AAl?$AAe?$AAn?$AA?$CI?$AAT?$AAZ?$AA?$CJ?$AA?5?$AA?$CL?$AA?5?$AA1?$AA?0@ 004dfba8     LIBCMTD:tzset.obj
 0003:0000fc00       ??_C@_0CP@FODJBIFF@f?3?2dd?2vctools?2crt_bld?2self_x86?2c@ 004dfc00     LIBCMTD:tzset.obj
 0003:0000fc38       ??_C@_02CLFPBFFP@TZ?$AA@   004dfc38     LIBCMTD:tzset.obj
 0003:0000fc3c       ??_C@_1CO@IMMOMMCB@?$AA_?$AAg?$AAe?$AAt?$AA_?$AAd?$AAs?$AAt?$AAb?$AAi?$AAa?$AAs?$AA?$CI?$AA?$CG?$AAd?$AAs?$AAt?$AAb?$AAi?$AAa?$AAs?$AA?$CJ?$AA?$AA@ 004dfc3c     LIBCMTD:tzset.obj
 0003:0000fc74       ??_C@_1DC@MEHEMOPB@?$AA_?$AAg?$AAe?$AAt?$AA_?$AAd?$AAa?$AAy?$AAl?$AAi?$AAg?$AAh?$AAt?$AA?$CI?$AA?$CG?$AAd?$AAa?$AAy?$AAl?$AAi?$AAg?$AAh?$AAt?$AA?$CJ?$AA?$AA@ 004dfc74     LIBCMTD:tzset.obj
 0003:0000fcb0       ??_C@_1DC@CMKCHHFC@?$AA_?$AAg?$AAe?$AAt?$AA_?$AAt?$AAi?$AAm?$AAe?$AAz?$AAo?$AAn?$AAe?$AA?$CI?$AA?$CG?$AAt?$AAi?$AAm?$AAe?$AAz?$AAo?$AAn?$AAe?$AA?$CJ?$AA?$AA@ 004dfcb0     LIBCMTD:tzset.obj
 0003:0000fcec       ??_C@_1BM@IIODHMJC@?$AA_?$AAt?$AAz?$AAs?$AAe?$AAt?$AA_?$AAn?$AAo?$AAl?$AAo?$AAc?$AAk?$AA?$AA@ 004dfcec     LIBCMTD:tzset.obj
 0003:0000fd10       ??_C@_1FO@MLHAIHAB@?$AAf?$AA?3?$AA?2?$AAd?$AAd?$AA?2?$AAv?$AAc?$AAt?$AAo?$AAo?$AAl?$AAs?$AA?2?$AAc?$AAr?$AAt?$AA_?$AAb?$AAl?$AAd?$AA?2?$AAs?$AAe?$AAl?$AAf?$AA_?$AAx?$AA8?$AA6?$AA?2?$AAc@ 004dfd10     LIBCMTD:tzset.obj
 0003:0000fd80       ??_C@_1CA@GOLIIEDM@?$AA_?$AAi?$AAs?$AAi?$AAn?$AAd?$AAs?$AAt?$AA_?$AAn?$AAo?$AAl?$AAo?$AAc?$AAk?$AA?$AA@ 004dfd80     LIBCMTD:tzset.obj
 0003:0000fda8       ??_C@_1BA@GOCKIDGO@?$AAc?$AAv?$AAt?$AAd?$AAa?$AAt?$AAe?$AA?$AA@ 004dfda8     LIBCMTD:tzset.obj
 0003:0000fdbc       ??_C@_1BG@GLLONOEH@?$AA_?$AAs?$AAt?$AAr?$AAi?$AAc?$AAm?$AAp?$AA_?$AAl?$AA?$AA@ 004dfdbc     LIBCMTD:stricmp.obj
 0003:0000fdd8       ??_C@_1GC@OILHAOLL@?$AAf?$AA?3?$AA?2?$AAd?$AAd?$AA?2?$AAv?$AAc?$AAt?$AAo?$AAo?$AAl?$AAs?$AA?2?$AAc?$AAr?$AAt?$AA_?$AAb?$AAl?$AAd?$AA?2?$AAs?$AAe?$AAl?$AAf?$AA_?$AAx?$AA8?$AA6?$AA?2?$AAc@ 004dfdd8     LIBCMTD:stricmp.obj
 0003:0000fe50       ??_C@_1BC@JLGKKIIG@?$AA_?$AAs?$AAt?$AAr?$AAi?$AAc?$AAm?$AAp?$AA?$AA@ 004dfe50     LIBCMTD:stricmp.obj
 0003:0000fe68       ??_C@_1CC@JLPHKJPH@?$AAc?$AAo?$AAu?$AAn?$AAt?$AA?5?$AA?$DM?$AA?$DN?$AA?5?$AAI?$AAN?$AAT?$AA_?$AAM?$AAA?$AAX?$AA?$AA@ 004dfe68     LIBCMTD:strnicmp.obj
 0003:0000fe90       ??_C@_1BI@BJLEPLEF@?$AA_?$AAs?$AAt?$AAr?$AAn?$AAi?$AAc?$AAm?$AAp?$AA_?$AAl?$AA?$AA@ 004dfe90     LIBCMTD:strnicmp.obj
 0003:0000feb0       ??_C@_1GE@CONPOJMA@?$AAf?$AA?3?$AA?2?$AAd?$AAd?$AA?2?$AAv?$AAc?$AAt?$AAo?$AAo?$AAl?$AAs?$AA?2?$AAc?$AAr?$AAt?$AA_?$AAb?$AAl?$AAd?$AA?2?$AAs?$AAe?$AAl?$AAf?$AA_?$AAx?$AA8?$AA6?$AA?2?$AAc@ 004dfeb0     LIBCMTD:strnicmp.obj
 0003:0000ff28       ??_C@_1BE@BHJDFFNA@?$AA_?$AAs?$AAt?$AAr?$AAn?$AAi?$AAc?$AAm?$AAp?$AA?$AA@ 004dff28     LIBCMTD:strnicmp.obj
 0003:0000ff40       ??_C@_1JE@ECKHFIFP@?$AA?$CI?$AA?$CC?$AAI?$AAn?$AAv?$AAa?$AAl?$AAi?$AAd?$AA?5?$AAf?$AAi?$AAl?$AAe?$AA?5?$AAd?$AAe?$AAs?$AAc?$AAr?$AAi?$AAp?$AAt?$AAo?$AAr?$AA?4?$AA?5?$AAF?$AAi?$AAl?$AAe?$AA?5@ 004dff40     LIBCMTD:lseeki64.obj
 0003:0000fff4       ??_C@_1CM@OKGMMMDH@?$AA?$CI?$AA_?$AAo?$AAs?$AAf?$AAi?$AAl?$AAe?$AA?$CI?$AAf?$AAh?$AA?$CJ?$AA?5?$AA?$CG?$AA?5?$AAF?$AAO?$AAP?$AAE?$AAN?$AA?$CJ?$AA?$AA@ 004dfff4     LIBCMTD:lseeki64.obj
 0003:00010028       ??_C@_1BE@KHFBJMNM@?$AA_?$AAl?$AAs?$AAe?$AAe?$AAk?$AAi?$AA6?$AA4?$AA?$AA@ 004e0028     LIBCMTD:lseeki64.obj
 0003:00010040       ??_C@_1GE@MINKPNPH@?$AAf?$AA?3?$AA?2?$AAd?$AAd?$AA?2?$AAv?$AAc?$AAt?$AAo?$AAo?$AAl?$AAs?$AA?2?$AAc?$AAr?$AAt?$AA_?$AAb?$AAl?$AAd?$AA?2?$AAs?$AAe?$AAl?$AAf?$AA_?$AAx?$AA8?$AA6?$AA?2?$AAc@ 004e0040     LIBCMTD:lseeki64.obj
 0003:000100b8       ??_C@_1FO@LPCLHKGE@?$AA?$CI?$AAf?$AAh?$AA?5?$AA?$DO?$AA?$DN?$AA?5?$AA0?$AA?5?$AA?$CG?$AA?$CG?$AA?5?$AA?$CI?$AAu?$AAn?$AAs?$AAi?$AAg?$AAn?$AAe?$AAd?$AA?$CJ?$AAf?$AAh?$AA?5?$AA?$DM?$AA?5?$AA?$CI?$AAu?$AAn?$AAs?$AAi@ 004e00b8     LIBCMTD:lseeki64.obj
 0003:00010128       ??_C@_1O@KOFKDHPL@?$AA_?$AAw?$AAr?$AAi?$AAt?$AAe?$AA?$AA@ 004e0128     LIBCMTD:write.obj
 0003:00010138       ??_C@_1FO@EPLDPDDL@?$AAf?$AA?3?$AA?2?$AAd?$AAd?$AA?2?$AAv?$AAc?$AAt?$AAo?$AAo?$AAl?$AAs?$AA?2?$AAc?$AAr?$AAt?$AA_?$AAb?$AAl?$AAd?$AA?2?$AAs?$AAe?$AAl?$AAf?$AA_?$AAx?$AA8?$AA6?$AA?2?$AAc@ 004e0138     LIBCMTD:write.obj
 0003:000101a8       ??_C@_1DI@CNMHHHLG@?$AAi?$AAs?$AAl?$AAe?$AAa?$AAd?$AAb?$AAy?$AAt?$AAe?$AA?$CI?$AA_?$AAd?$AAb?$AAc?$AAs?$AAB?$AAu?$AAf?$AAf?$AAe?$AAr?$AA?$CI?$AAf?$AAh?$AA?$CJ?$AA?$CJ?$AA?$AA@ 004e01a8     LIBCMTD:write.obj
 0003:000101ec       ??_C@_1CC@EEOLPHGO@?$AA?$CI?$AA?$CI?$AAc?$AAn?$AAt?$AA?5?$AA?$CG?$AA?5?$AA1?$AA?$CJ?$AA?5?$AA?$DN?$AA?$DN?$AA?5?$AA0?$AA?$CJ?$AA?$AA@ 004e01ec     LIBCMTD:write.obj
 0003:00010214       ??_C@_1BM@NCANHCIP@?$AA_?$AAw?$AAr?$AAi?$AAt?$AAe?$AA_?$AAn?$AAo?$AAl?$AAo?$AAc?$AAk?$AA?$AA@ 004e0214     LIBCMTD:write.obj
 0003:00010238       ??_C@_1BM@KFJLMBPG@?$AA?$CI?$AAb?$AAu?$AAf?$AA?5?$AA?$CB?$AA?$DN?$AA?5?$AAN?$AAU?$AAL?$AAL?$AA?$CJ?$AA?$AA@ 004e0238     LIBCMTD:write.obj
 0003:0001025c       ??_C@_0DB@JEHOCBEJ@f?3?2dd?2vctools?2crt_bld?2self_x86?2c@ 004e025c     LIBCMTD:_getbuf.obj
 0003:00010298       ??_C@_1GC@DKMGNNCC@?$AAf?$AA?3?$AA?2?$AAd?$AAd?$AA?2?$AAv?$AAc?$AAt?$AAo?$AAo?$AAl?$AAs?$AA?2?$AAc?$AAr?$AAt?$AA_?$AAb?$AAl?$AAd?$AA?2?$AAs?$AAe?$AAl?$AAf?$AA_?$AAx?$AA8?$AA6?$AA?2?$AAc@ 004e0298     LIBCMTD:_getbuf.obj
 0003:00010310       ??_C@_1BA@LEBDGIHM@?$AA_?$AAi?$AAs?$AAa?$AAt?$AAt?$AAy?$AA?$AA@ 004e0310     LIBCMTD:isatty.obj
 0003:00010328       ??_C@_1GA@LPGDJDEN@?$AAf?$AA?3?$AA?2?$AAd?$AAd?$AA?2?$AAv?$AAc?$AAt?$AAo?$AAo?$AAl?$AAs?$AA?2?$AAc?$AAr?$AAt?$AA_?$AAb?$AAl?$AAd?$AA?2?$AAs?$AAe?$AAl?$AAf?$AA_?$AAx?$AA8?$AA6?$AA?2?$AAc@ 004e0328     LIBCMTD:isatty.obj
 0003:0001039c       ??_C@_0CP@BNKDODJJ@f?3?2dd?2vctools?2crt_bld?2self_x86?2c@ 004e039c     LIBCMTD:_file.obj
 0003:000103d4       ??_C@_1BA@JGHIEKKM@?$AA_?$AAf?$AAi?$AAl?$AAe?$AAn?$AAo?$AA?$AA@ 004e03d4     LIBCMTD:fileno.obj
 0003:000103e8       ??_C@_1GA@PBJHELNC@?$AAf?$AA?3?$AA?2?$AAd?$AAd?$AA?2?$AAv?$AAc?$AAt?$AAo?$AAo?$AAl?$AAs?$AA?2?$AAc?$AAr?$AAt?$AA_?$AAb?$AAl?$AAd?$AA?2?$AAs?$AAe?$AAl?$AAf?$AA_?$AAx?$AA8?$AA6?$AA?2?$AAc@ 004e03e8     LIBCMTD:fileno.obj
 0003:0001045c       ??_C@_1O@GKDHFACN@?$AAp?$AAr?$AAi?$AAn?$AAt?$AAf?$AA?$AA@ 004e045c     LIBCMTD:printf.obj
 0003:00010470       ??_C@_1GA@LHEGHOAF@?$AAf?$AA?3?$AA?2?$AAd?$AAd?$AA?2?$AAv?$AAc?$AAt?$AAo?$AAo?$AAl?$AAs?$AA?2?$AAc?$AAr?$AAt?$AA_?$AAb?$AAl?$AAd?$AA?2?$AAs?$AAe?$AAl?$AAf?$AA_?$AAx?$AA8?$AA6?$AA?2?$AAc@ 004e0470     LIBCMTD:printf.obj
 0003:000104e4       ??_C@_1CA@CBMNPEO@?$AAs?$AAi?$AAz?$AAe?$AAI?$AAn?$AAB?$AAy?$AAt?$AAe?$AAs?$AA?5?$AA?$DO?$AA?5?$AA0?$AA?$AA@ 004e04e4     LIBCMTD:wctomb.obj
 0003:0001050c       ??_C@_1BI@IEADNOHF@?$AA_?$AAw?$AAc?$AAt?$AAo?$AAm?$AAb?$AA_?$AAs?$AA_?$AAl?$AA?$AA@ 004e050c     LIBCMTD:wctomb.obj
 0003:00010528       ??_C@_1GA@LDLHPOO@?$AAf?$AA?3?$AA?2?$AAd?$AAd?$AA?2?$AAv?$AAc?$AAt?$AAo?$AAo?$AAl?$AAs?$AA?2?$AAc?$AAr?$AAt?$AA_?$AAb?$AAl?$AAd?$AA?2?$AAs?$AAe?$AAl?$AAf?$AA_?$AAx?$AA8?$AA6?$AA?2?$AAc@ 004e0528     LIBCMTD:wctomb.obj
 0003:0001059c       ??_C@_1CO@HFMIILNF@?$AAs?$AAi?$AAz?$AAe?$AAI?$AAn?$AAB?$AAy?$AAt?$AAe?$AAs?$AA?5?$AA?$DM?$AA?$DN?$AA?5?$AAI?$AAN?$AAT?$AA_?$AAM?$AAA?$AAX?$AA?$AA@ 004e059c     LIBCMTD:wctomb.obj
 0003:000105d8       ??_C@_1FK@BCPANIEK@?$AA?$CI?$AA?$CC?$AAM?$AAi?$AAs?$AAs?$AAi?$AAn?$AAg?$AA?5?$AAp?$AAo?$AAs?$AAi?$AAt?$AAi?$AAo?$AAn?$AA?5?$AAi?$AAn?$AA?5?$AAt?$AAh?$AAe?$AA?5?$AAf?$AAo?$AAr?$AAm?$AAa?$AAt@ 004e05d8     LIBCMTD:outputp.obj
 0003:00010648       ??_C@_1FK@LNCFKALM@?$AA?$CI?$AA?$CI?$AAs?$AAt?$AAa?$AAt?$AAe?$AA?5?$AA?$DN?$AA?$DN?$AA?5?$AAS?$AAT?$AA_?$AAN?$AAO?$AAR?$AAM?$AAA?$AAL?$AA?$CJ?$AA?5?$AA?$HM?$AA?$HM?$AA?5?$AA?$CI?$AAs?$AAt?$AAa?$AAt?$AAe?$AA?5@ 004e0648     LIBCMTD:outputp.obj
 0003:000106b8       ??_C@_1JC@OACKELNN@?$AA_?$AAt?$AAv?$AAa?$AAl?$AAi?$AAd?$AAa?$AAt?$AAe?$AA_?$AAp?$AAa?$AAr?$AAa?$AAm?$AA_?$AAr?$AAe?$AAu?$AAs?$AAe?$AA?$CI?$AA?$CG?$AAp?$AAo?$AAs?$AA_?$AAv?$AAa?$AAl?$AAu@ 004e06b8     LIBCMTD:outputp.obj
 0003:00010768       ??_C@_1IK@NBGDDCBN@?$AA_?$AAt?$AAv?$AAa?$AAl?$AAi?$AAd?$AAa?$AAt?$AAe?$AA_?$AAp?$AAa?$AAr?$AAa?$AAm?$AA_?$AAr?$AAe?$AAu?$AAs?$AAe?$AA?$CI?$AA?$CG?$AAp?$AAo?$AAs?$AA_?$AAv?$AAa?$AAl?$AAu@ 004e0768     LIBCMTD:outputp.obj
 0003:00010810       ??_C@_1DG@GOHGNKHE@?$AAp?$AAa?$AAs?$AAs?$AA?5?$AA?$DN?$AA?$DN?$AA?5?$AAF?$AAO?$AAR?$AAM?$AAA?$AAT?$AA_?$AAO?$AAU?$AAT?$AAP?$AAU?$AAT?$AA_?$AAP?$AAA?$AAS?$AAS?$AA?$AA@ 004e0810     LIBCMTD:outputp.obj
 0003:00010850       ??_C@_1IM@DNGHAPLB@?$AA_?$AAt?$AAv?$AAa?$AAl?$AAi?$AAd?$AAa?$AAt?$AAe?$AA_?$AAp?$AAa?$AAr?$AAa?$AAm?$AA_?$AAr?$AAe?$AAu?$AAs?$AAe?$AA?$CI?$AA?$CG?$AAp?$AAo?$AAs?$AA_?$AAv?$AAa?$AAl?$AAu@ 004e0850     LIBCMTD:outputp.obj
 0003:000108f8       ??_C@_1IG@HJIMKDHC@?$AA_?$AAt?$AAv?$AAa?$AAl?$AAi?$AAd?$AAa?$AAt?$AAe?$AA_?$AAp?$AAa?$AAr?$AAa?$AAm?$AA_?$AAr?$AAe?$AAu?$AAs?$AAe?$AA?$CI?$AA?$CG?$AAp?$AAo?$AAs?$AA_?$AAv?$AAa?$AAl?$AAu@ 004e08f8     LIBCMTD:outputp.obj
 0003:00010998       ??_C@_1IG@FDCPLALG@?$AA_?$AAt?$AAv?$AAa?$AAl?$AAi?$AAd?$AAa?$AAt?$AAe?$AA_?$AAp?$AAa?$AAr?$AAa?$AAm?$AA_?$AAr?$AAe?$AAu?$AAs?$AAe?$AA?$CI?$AA?$CG?$AAp?$AAo?$AAs?$AA_?$AAv?$AAa?$AAl?$AAu@ 004e0998     LIBCMTD:outputp.obj
 0003:00010a38       ??_C@_1IK@MHEDJAMK@?$AA_?$AAt?$AAv?$AAa?$AAl?$AAi?$AAd?$AAa?$AAt?$AAe?$AA_?$AAp?$AAa?$AAr?$AAa?$AAm?$AA_?$AAr?$AAe?$AAu?$AAs?$AAe?$AA?$CI?$AA?$CG?$AAp?$AAo?$AAs?$AA_?$AAv?$AAa?$AAl?$AAu@ 004e0a38     LIBCMTD:outputp.obj
 0003:00010ae0       ??_C@_1EM@BNPHBBIA@?$AA?$CI?$AA?$CI?$AAt?$AAy?$AAp?$AAe?$AA_?$AAp?$AAo?$AAs?$AA?$DO?$AA?$DN?$AA0?$AA?$CJ?$AA?5?$AA?$CG?$AA?$CG?$AA?5?$AA?$CI?$AAt?$AAy?$AAp?$AAe?$AA_?$AAp?$AAo?$AAs?$AA?$DM?$AA_?$AAA?$AAR?$AAG@ 004e0ae0     LIBCMTD:outputp.obj
 0003:00010b40       ??_C@_1IK@EIEPDKHJ@?$AA_?$AAt?$AAv?$AAa?$AAl?$AAi?$AAd?$AAa?$AAt?$AAe?$AA_?$AAp?$AAa?$AAr?$AAa?$AAm?$AA_?$AAr?$AAe?$AAu?$AAs?$AAe?$AA?$CI?$AA?$CG?$AAp?$AAo?$AAs?$AA_?$AAv?$AAa?$AAl?$AAu@ 004e0b40     LIBCMTD:outputp.obj
 0003:00010be8       ??_C@_1JG@JBJBOCFB@?$AA?$CI?$AA?$CI?$AAp?$AAr?$AAe?$AAc?$AAi?$AAs?$AA_?$AAp?$AAo?$AAs?$AA?5?$AA?$DO?$AA?$DN?$AA?5?$AA0?$AA?$CJ?$AA?5?$AA?$CG?$AA?$CG?$AA?5?$AA?$CI?$AA?$CK?$AAe?$AAn?$AAd?$AA_?$AAp?$AAo?$AAs?$AA?5@ 004e0be8     LIBCMTD:outputp.obj
 0003:00010ca0       ??_C@_1II@PIPIMLPF@?$AA_?$AAt?$AAv?$AAa?$AAl?$AAi?$AAd?$AAa?$AAt?$AAe?$AA_?$AAp?$AAa?$AAr?$AAa?$AAm?$AA_?$AAr?$AAe?$AAu?$AAs?$AAe?$AA?$CI?$AA?$CG?$AAp?$AAo?$AAs?$AA_?$AAv?$AAa?$AAl?$AAu@ 004e0ca0     LIBCMTD:outputp.obj
 0003:00010d48       ??_C@_1JE@NMBHOLFI@?$AA?$CI?$AA?$CI?$AAw?$AAi?$AAd?$AAt?$AAh?$AA_?$AAp?$AAo?$AAs?$AA?5?$AA?$DO?$AA?$DN?$AA?5?$AA0?$AA?$CJ?$AA?5?$AA?$CG?$AA?$CG?$AA?5?$AA?$CI?$AA?$CK?$AAe?$AAn?$AAd?$AA_?$AAp?$AAo?$AAs?$AA?5?$AA?$DN@ 004e0d48     LIBCMTD:outputp.obj
 0003:00010e00       ??_C@_1EE@DMAIGNBG@?$AA?$CI?$AA?$CC?$AAI?$AAn?$AAc?$AAo?$AAr?$AAr?$AAe?$AAc?$AAt?$AA?5?$AAf?$AAo?$AAr?$AAm?$AAa?$AAt?$AA?5?$AAs?$AAp?$AAe?$AAc?$AAi?$AAf?$AAi?$AAe?$AAr?$AA?$CC?$AA?0?$AA?5?$AA0@ 004e0e00     LIBCMTD:outputp.obj
 0003:00010e58       ??_C@_1JC@PFJNKEIO@?$AA?$CI?$AA?$CI?$AAt?$AAy?$AAp?$AAe?$AA_?$AAp?$AAo?$AAs?$AA?5?$AA?$DO?$AA?$DN?$AA?5?$AA0?$AA?$CJ?$AA?5?$AA?$CG?$AA?$CG?$AA?5?$AA?$CI?$AA?$CK?$AAe?$AAn?$AAd?$AA_?$AAp?$AAo?$AAs?$AA?5?$AA?$DN?$AA?$DN@ 004e0e58     LIBCMTD:outputp.obj
 0003:00010f08       ??_C@_1BI@KANOLAMF@?$AA_?$AAo?$AAu?$AAt?$AAp?$AAu?$AAt?$AA_?$AAp?$AA_?$AAl?$AA?$AA@ 004e0f08     LIBCMTD:outputp.obj
 0003:00010f28       ___lookuptable_s           004e0f28     LIBCMTD:outputs.obj
 0003:00010f94       ??_C@_1BI@COFBLHCG@?$AA_?$AAo?$AAu?$AAt?$AAp?$AAu?$AAt?$AA_?$AAs?$AA_?$AAl?$AA?$AA@ 004e0f94     LIBCMTD:outputs.obj
 0003:00010fb0       ??_C@_1BK@ONMFGLDB@?$AA_?$AAw?$AAo?$AAu?$AAt?$AAp?$AAu?$AAt?$AA_?$AAs?$AA_?$AAl?$AA?$AA@ 004e0fb0     LIBCMTD:woutputs.obj
 0003:00010fd0       ??_C@_1BK@GDEKGMNC@?$AA_?$AAw?$AAo?$AAu?$AAt?$AAp?$AAu?$AAt?$AA_?$AAp?$AA_?$AAl?$AA?$AA@ 004e0fd0     LIBCMTD:woutputp.obj
 0003:00010ff0       ??_C@_1GA@GFFDGGFH@?$AAf?$AA?3?$AA?2?$AAd?$AAd?$AA?2?$AAv?$AAc?$AAt?$AAo?$AAo?$AAl?$AAs?$AA?2?$AAc?$AAr?$AAt?$AA_?$AAb?$AAl?$AAd?$AA?2?$AAs?$AAe?$AAl?$AAf?$AA_?$AAx?$AA8?$AA6?$AA?2?$AAc@ 004e0ff0     LIBCMTD:mbtowc.obj
 0003:00011068       ??_C@_1NC@EINCOKCO@?$AA_?$AAl?$AAo?$AAc?$AA_?$AAu?$AAp?$AAd?$AAa?$AAt?$AAe?$AA?4?$AAG?$AAe?$AAt?$AAL?$AAo?$AAc?$AAa?$AAl?$AAe?$AAT?$AA?$CI?$AA?$CJ?$AA?9?$AA?$DO?$AAl?$AAo?$AAc?$AAi?$AAn?$AAf@ 004e1068     LIBCMTD:mbtowc.obj
 0003:00011164       ??_C@_1O@HJNPHHHB@?$AAf?$AAp?$AAu?$AAt?$AAw?$AAc?$AA?$AA@ 004e1164     LIBCMTD:fputwc.obj
 0003:00011178       ??_C@_1GA@BJIGKGEA@?$AAf?$AA?3?$AA?2?$AAd?$AAd?$AA?2?$AAv?$AAc?$AAt?$AAo?$AAo?$AAl?$AAs?$AA?2?$AAc?$AAr?$AAt?$AA_?$AAb?$AAl?$AAd?$AA?2?$AAs?$AAe?$AAl?$AAf?$AA_?$AAx?$AA8?$AA6?$AA?2?$AAc@ 004e1178     LIBCMTD:fputwc.obj
 0003:000111ec       ??_C@_1BM@JMKHIAHP@?$AA?$CI?$AAs?$AAt?$AAr?$AA?5?$AA?$CB?$AA?$DN?$AA?5?$AAN?$AAU?$AAL?$AAL?$AA?$CJ?$AA?$AA@ 004e11ec     LIBCMTD:fputwc.obj
 0003:00011210       ??_C@_1FA@HILOOCMA@?$AA?$CI?$AA_?$AAt?$AAc?$AAs?$AAn?$AAl?$AAe?$AAn?$AA?$CI?$AAo?$AAp?$AAt?$AAi?$AAo?$AAn?$AA?0?$AA?5?$AA_?$AAM?$AAA?$AAX?$AA_?$AAE?$AAN?$AAV?$AA?$CJ?$AA?5?$AA?$DM?$AA?5?$AA_?$AAM@ 004e1210     LIBCMTD:getenv.obj
 0003:00011270       ??_C@_1O@GMKGKCJO@?$AAg?$AAe?$AAt?$AAe?$AAn?$AAv?$AA?$AA@ 004e1270     LIBCMTD:getenv.obj
 0003:00011280       ??_C@_1GA@IPPICGKB@?$AAf?$AA?3?$AA?2?$AAd?$AAd?$AA?2?$AAv?$AAc?$AAt?$AAo?$AAo?$AAl?$AAs?$AA?2?$AAc?$AAr?$AAt?$AA_?$AAb?$AAl?$AAd?$AA?2?$AAs?$AAe?$AAl?$AAf?$AA_?$AAx?$AA8?$AA6?$AA?2?$AAc@ 004e1280     LIBCMTD:getenv.obj
 0003:000112f4       ??_C@_1CC@FKAOHHLO@?$AA?$CI?$AAo?$AAp?$AAt?$AAi?$AAo?$AAn?$AA?5?$AA?$CB?$AA?$DN?$AA?5?$AAN?$AAU?$AAL?$AAL?$AA?$CJ?$AA?$AA@ 004e12f4     LIBCMTD:getenv.obj
 0003:00011320       ??_C@_1GI@JBIFPFJH@?$AA_?$AAt?$AAc?$AAs?$AAn?$AAl?$AAe?$AAn?$AA?$CI?$AA?$CK?$AAs?$AAe?$AAa?$AAr?$AAc?$AAh?$AA?5?$AA?$CL?$AA?5?$AAl?$AAe?$AAn?$AAg?$AAt?$AAh?$AA?5?$AA?$CL?$AA?5?$AA1?$AA?0?$AA?5?$AA_@ 004e1320     LIBCMTD:getenv.obj
 0003:000113a0       ??_C@_1EI@HHOBPCFK@?$AAs?$AAt?$AAr?$AAc?$AAp?$AAy?$AA_?$AAs?$AA?$CI?$AAb?$AAu?$AAf?$AAf?$AAe?$AAr?$AA?0?$AA?5?$AAs?$AAi?$AAz?$AAe?$AAI?$AAn?$AAT?$AAC?$AAh?$AAa?$AAr?$AAs?$AA?0?$AA?5?$AAs@ 004e13a0     LIBCMTD:getenv.obj
 0003:000113f8       ??_C@_1JM@NLPGJJPH@?$AA?$CI?$AAb?$AAu?$AAf?$AAf?$AAe?$AAr?$AA?5?$AA?$CB?$AA?$DN?$AA?5?$AAN?$AAU?$AAL?$AAL?$AA?5?$AA?$CG?$AA?$CG?$AA?5?$AAs?$AAi?$AAz?$AAe?$AAI?$AAn?$AAT?$AAC?$AAh?$AAa?$AAr?$AAs?$AA?5@ 004e13f8     LIBCMTD:getenv.obj
 0003:000114b4       ??_C@_1CC@BAJKDIIF@?$AA_?$AAg?$AAe?$AAt?$AAe?$AAn?$AAv?$AA_?$AAs?$AA_?$AAh?$AAe?$AAl?$AAp?$AAe?$AAr?$AA?$AA@ 004e14b4     LIBCMTD:getenv.obj
 0003:000114dc       ??_C@_1CK@PIKDAOCL@?$AAp?$AAR?$AAe?$AAt?$AAu?$AAr?$AAn?$AAV?$AAa?$AAl?$AAu?$AAe?$AA?5?$AA?$CB?$AA?$DN?$AA?5?$AAN?$AAU?$AAL?$AAL?$AA?$AA@ 004e14dc     LIBCMTD:getenv.obj
 0003:00011510       ??_C@_1DM@GNKNEGJO@?$AAs?$AAt?$AAr?$AAc?$AAp?$AAy?$AA_?$AAs?$AA?$CI?$AA?$CK?$AAp?$AAB?$AAu?$AAf?$AAf?$AAe?$AAr?$AA?0?$AA?5?$AAs?$AAi?$AAz?$AAe?$AA?0?$AA?5?$AAs?$AAt?$AAr?$AA?$CJ?$AA?$AA@ 004e1510     LIBCMTD:getenv.obj
 0003:00011558       ??_C@_1CA@GDBKELOE@?$AAv?$AAa?$AAr?$AAn?$AAa?$AAm?$AAe?$AA?5?$AA?$CB?$AA?$DN?$AA?5?$AAN?$AAU?$AAL?$AAL?$AA?$AA@ 004e1558     LIBCMTD:getenv.obj
 0003:00011580       ??_C@_1CC@KPLOPIEM@?$AA_?$AAd?$AAu?$AAp?$AAe?$AAn?$AAv?$AA_?$AAs?$AA_?$AAh?$AAe?$AAl?$AAp?$AAe?$AAr?$AA?$AA@ 004e1580     LIBCMTD:getenv.obj
 0003:000115a8       ??_C@_1CA@FHNFMDOJ@?$AAp?$AAB?$AAu?$AAf?$AAf?$AAe?$AAr?$AA?5?$AA?$CB?$AA?$DN?$AA?5?$AAN?$AAU?$AAL?$AAL?$AA?$AA@ 004e15a8     LIBCMTD:getenv.obj
 0003:000115d0       ??_C@_0DB@KIKNCIEC@f?3?2dd?2vctools?2crt_bld?2self_x86?2c@ 004e15d0     LIBCMTD:osfinfo.obj
 0003:0001160c       ??_C@_1BO@EMBOBGKE@?$AA_?$AAg?$AAe?$AAt?$AA_?$AAo?$AAs?$AAf?$AAh?$AAa?$AAn?$AAd?$AAl?$AAe?$AA?$AA@ 004e160c     LIBCMTD:osfinfo.obj
 0003:00011630       ??_C@_1GC@MLKLDJJG@?$AAf?$AA?3?$AA?2?$AAd?$AAd?$AA?2?$AAv?$AAc?$AAt?$AAo?$AAo?$AAl?$AAs?$AA?2?$AAc?$AAr?$AAt?$AA_?$AAb?$AAl?$AAd?$AA?2?$AAs?$AAe?$AAl?$AAf?$AA_?$AAx?$AA8?$AA6?$AA?2?$AAc@ 004e1630     LIBCMTD:osfinfo.obj
 0003:000116a8       ??_C@_1BA@NGNGNDEP@?$AA_?$AAc?$AAp?$AAu?$AAt?$AAw?$AAs?$AA?$AA@ 004e16a8     LIBCMTD:putwch.obj
 0003:000116c0       ??_C@_1GA@NKLOJFIJ@?$AAf?$AA?3?$AA?2?$AAd?$AAd?$AA?2?$AAv?$AAc?$AAt?$AAo?$AAo?$AAl?$AAs?$AA?2?$AAc?$AAr?$AAt?$AA_?$AAb?$AAl?$AAd?$AA?2?$AAs?$AAe?$AAl?$AAf?$AA_?$AAx?$AA8?$AA6?$AA?2?$AAc@ 004e16c0     LIBCMTD:putwch.obj
 0003:00011734       ??_C@_0BO@GNIAFIKK@Unknown?5Runtime?5Check?5Error?6?$AN?$AA@ 004e1734     LIBCMTD:_error_.obj
 0003:00011758       ??_C@_0CM@NGINOKPC@Stack?5memory?5around?5_alloca?5was?5@ 004e1758     LIBCMTD:_error_.obj
 0003:0001178c       ??_C@_0DG@HKJMLLLP@A?5local?5variable?5was?5used?5before@ 004e178c     LIBCMTD:_error_.obj
 0003:000117cc       ??_C@_0BN@FFOINMNJ@Stack?5memory?5was?5corrupted?6?$AN?$AA@ 004e17cc     LIBCMTD:_error_.obj
 0003:000117f0       ??_C@_0BBN@GPMLNJCF@A?5cast?5to?5a?5smaller?5data?5type?5ha@ 004e17f0     LIBCMTD:_error_.obj
 0003:00011948       ??_C@_0NN@NGPKDKPD@The?5value?5of?5ESP?5was?5not?5properl@ 004e1948     LIBCMTD:_error_.obj
 0003:00011b10       ??_C@_0CA@IODNCDPG@Run?9Time?5Check?5Failure?5?$CD?$CFd?5?9?5?$CFs?$AA@ 004e1b10     LIBCMTD:_error_.obj
 0003:00011b38       ??_C@_0BE@GNBOBNCK@Unknown?5Module?5Name?$AA@ 004e1b38     LIBCMTD:_error_.obj
 0003:00011b50       ??_C@_0BB@PFFGGCJP@Unknown?5Filename?$AA@ 004e1b50     LIBCMTD:_error_.obj
 0003:00011b68       ??_C@_1EA@NFKNIFJP@?$AAR?$AAu?$AAn?$AA?9?$AAT?$AAi?$AAm?$AAe?$AA?5?$AAC?$AAh?$AAe?$AAc?$AAk?$AA?5?$AAF?$AAa?$AAi?$AAl?$AAu?$AAr?$AAe?$AA?5?$AA?$CD?$AA?$CF?$AAd?$AA?5?$AA?9?$AA?5?$AA?$CF?$AAs?$AA?$AA@ 004e1b68     LIBCMTD:_error_.obj
 0003:00011bb8       ??_C@_1GM@OLMCBDMB@?$AAR?$AAu?$AAn?$AAt?$AAi?$AAm?$AAe?$AA?5?$AAC?$AAh?$AAe?$AAc?$AAk?$AA?5?$AAE?$AAr?$AAr?$AAo?$AAr?$AA?4?$AA?6?$AA?$AN?$AA?5?$AAU?$AAn?$AAa?$AAb?$AAl?$AAe?$AA?5?$AAt?$AAo@ 004e1bb8     LIBCMTD:_error_.obj
 0003:00011c3c       ??_C@_0CG@IAFNJNEE@Stack?5corrupted?5near?5unknown?5var@ 004e1c3c     LIBCMTD:_error_.obj
 0003:00011c70       ??_C@_0EJ@LJKNEOLN@Stack?5area?5around?5_alloca?5memory@ 004e1c70     LIBCMTD:_error_.obj
 0003:00011cc8       ??_C@_08KJEDNCKC@?$CFs?$CFs?$CFs?$CFs?$AA@ 004e1cc8     LIBCMTD:_error_.obj
 0003:00011cd4       ??_C@_02LLMPMKNF@?$DO?5?$AA@ 004e1cd4     LIBCMTD:_error_.obj
 0003:00011cd8       ??_C@_0BC@KIBAILCI@?$CFs?$CFs?$CFp?$CFs?$CFld?$CFs?$CFd?$CFs?$AA@ 004e1cd8     LIBCMTD:_error_.obj
 0003:00011cf0       ??_C@_0EI@CLEPFNGI@Stack?5area?5around?5_alloca?5memory@ 004e1cf0     LIBCMTD:_error_.obj
 0003:00011d48       ??_C@_0N@MHFFIMFG@?6Address?3?50x?$AA@ 004e1d48     LIBCMTD:_error_.obj
 0003:00011d58       ??_C@_07DFDJCKFN@?6Size?3?5?$AA@ 004e1d58     LIBCMTD:_error_.obj
 0003:00011d64       ??_C@_0CK@DKGBICFE@?6Allocation?5number?5within?5this?5f@ 004e1d64     LIBCMTD:_error_.obj
 0003:00011d98       ??_C@_08OMAHNMHJ@?6Data?3?5?$DM?$AA@ 004e1d98     LIBCMTD:_error_.obj
 0003:00011da4       ??_C@_09FOPFMPEJ@wsprintfA?$AA@ 004e1da4     LIBCMTD:_error_.obj
 0003:00011db0       ??_C@_0L@GMPLCCII@user32?4dll?$AA@ 004e1db0     LIBCMTD:_error_.obj
 0003:00011dc0       ??_C@_0DE@OHJBPMBP@A?5variable?5is?5being?5used?5without@ 004e1dc0     LIBCMTD:_error_.obj
 0003:00011e00       ??_C@_0DB@OLNNDFNH@f?3?2dd?2vctools?2crt_bld?2self_x86?2c@ 004e1e00     LIBCMTD:_sftbuf.obj
 0003:00011e40       ??_C@_1GC@DGAFOCMO@?$AAf?$AA?3?$AA?2?$AAd?$AAd?$AA?2?$AAv?$AAc?$AAt?$AAo?$AAo?$AAl?$AAs?$AA?2?$AAc?$AAr?$AAt?$AA_?$AAb?$AAl?$AAd?$AA?2?$AAs?$AAe?$AAl?$AAf?$AA_?$AAx?$AA8?$AA6?$AA?2?$AAc@ 004e1e40     LIBCMTD:_sftbuf.obj
 0003:00011eb8       ??_C@_1CO@KCKAACMI@?$AAf?$AAl?$AAa?$AAg?$AA?5?$AA?$DN?$AA?$DN?$AA?5?$AA0?$AA?5?$AA?$HM?$AA?$HM?$AA?5?$AAf?$AAl?$AAa?$AAg?$AA?5?$AA?$DN?$AA?$DN?$AA?5?$AA1?$AA?$AA@ 004e1eb8     LIBCMTD:_sftbuf.obj
 0003:00011ef0       ??_C@_1BO@JGFPDJCP@?$AAv?$AAp?$AAr?$AAi?$AAn?$AAt?$AAf?$AA_?$AAh?$AAe?$AAl?$AAp?$AAe?$AAr?$AA?$AA@ 004e1ef0     LIBCMTD:vprintf.obj
 0003:00011f18       ??_C@_1GC@DHFFJKMC@?$AAf?$AA?3?$AA?2?$AAd?$AAd?$AA?2?$AAv?$AAc?$AAt?$AAo?$AAo?$AAl?$AAs?$AA?2?$AAc?$AAr?$AAt?$AA_?$AAb?$AAl?$AAd?$AA?2?$AAs?$AAe?$AAl?$AAf?$AA_?$AAx?$AA8?$AA6?$AA?2?$AAc@ 004e1f18     LIBCMTD:vprintf.obj
 0003:00011f90       ??_C@_1BA@PCFLFGNC@?$AAw?$AAc?$AAs?$AAt?$AAo?$AAx?$AAl?$AA?$AA@ 004e1f90     LIBCMTD:wcstol.obj
 0003:00011fa8       ??_C@_1GA@CADFOND@?$AAf?$AA?3?$AA?2?$AAd?$AAd?$AA?2?$AAv?$AAc?$AAt?$AAo?$AAo?$AAl?$AAs?$AA?2?$AAc?$AAr?$AAt?$AA_?$AAb?$AAl?$AAd?$AA?2?$AAs?$AAe?$AAl?$AAf?$AA_?$AAx?$AA8?$AA6?$AA?2?$AAc@ 004e1fa8     LIBCMTD:wcstol.obj
 0003:0001201c       ??_C@_1BK@CMPKHPEC@?$AAn?$AA?5?$AA?$DM?$AA?$DN?$AA?5?$AAI?$AAN?$AAT?$AA_?$AAM?$AAA?$AAX?$AA?$AA@ 004e201c     LIBCMTD:mbsnbico.obj
 0003:0001203c       ??_C@_1BG@GBJNMPFA@?$AAs?$AA2?$AA?5?$AA?$CB?$AA?$DN?$AA?5?$AAN?$AAU?$AAL?$AAL?$AA?$AA@ 004e203c     LIBCMTD:mbsnbico.obj
 0003:00012058       ??_C@_1BM@FKNNDAHH@?$AA_?$AAm?$AAb?$AAs?$AAn?$AAb?$AAi?$AAc?$AAo?$AAl?$AAl?$AA_?$AAl?$AA?$AA@ 004e2058     LIBCMTD:mbsnbico.obj
 0003:00012080       ??_C@_1GE@NJHAJPKI@?$AAf?$AA?3?$AA?2?$AAd?$AAd?$AA?2?$AAv?$AAc?$AAt?$AAo?$AAo?$AAl?$AAs?$AA?2?$AAc?$AAr?$AAt?$AA_?$AAb?$AAl?$AAd?$AA?2?$AAs?$AAe?$AAl?$AAf?$AA_?$AAx?$AA8?$AA6?$AA?2?$AAc@ 004e2080     LIBCMTD:mbsnbico.obj
 0003:000120f8       ??_C@_1BG@MODEICJK@?$AAs?$AA1?$AA?5?$AA?$CB?$AA?$DN?$AA?5?$AAN?$AAU?$AAL?$AAL?$AA?$AA@ 004e20f8     LIBCMTD:mbsnbico.obj
 0003:00012114       ??_C@_0DC@CAFDLBC@f?3?2dd?2vctools?2crt_bld?2self_x86?2c@ 004e2114     LIBCMTD:wtombenv.obj
 0003:00012150       ??_C@_06GDENEHCP@CONIN$?$AA@ 004e2150     LIBCMTD:initcon.obj
 0003:00012158       ??_C@_07GPDNMNG@CONOUT$?$AA@ 004e2158     LIBCMTD:initcon.obj
 0003:00012164       ??_C@_0M@EKFFODEC@MSPDB80?4DLL?$AA@ 004e2164     LIBCMTD:_pdblkup_.obj
 0003:00012174       ??_C@_01KDCPPGHE@r?$AA@    004e2174     LIBCMTD:_pdblkup_.obj
 0003:00012178       ??_C@_0BB@KCIACLNC@PDBOpenValidate5?$AA@ 004e2178     LIBCMTD:_pdblkup_.obj
 0003:0001218c       ??_C@_0BF@BMIHBHCA@EnvironmentDirectory?$AA@ 004e218c     LIBCMTD:_pdblkup_.obj
 0003:000121a8       ??_C@_0CN@JNNIHDGH@SOFTWARE?2Microsoft?2VisualStudio?2@ 004e21a8     LIBCMTD:_pdblkup_.obj
 0003:000121e0       ??_C@_0M@HLOHPNFA@RegCloseKey?$AA@ 004e21e0     LIBCMTD:_pdblkup_.obj
 0003:000121f0       ??_C@_0BB@HHEIPGME@RegQueryValueExA?$AA@ 004e21f0     LIBCMTD:_pdblkup_.obj
 0003:00012204       ??_C@_0O@DCOGKJGG@RegOpenKeyExA?$AA@ 004e2204     LIBCMTD:_pdblkup_.obj
 0003:00012214       ??_C@_0BP@OGBCLIBO@Stack?5around?5_alloca?5corrupted?$AA@ 004e2214     LIBCMTD:_userapi_.obj
 0003:0001223c       ??_C@_0CK@CNLNOEPB@Local?5variable?5used?5before?5initi@ 004e223c     LIBCMTD:_userapi_.obj
 0003:00012270       ??_C@_0BI@CIGMDCBH@Stack?5memory?5corruption?$AA@ 004e2270     LIBCMTD:_userapi_.obj
 0003:0001228c       ??_C@_0CK@FEGOIOPB@Cast?5to?5smaller?5type?5causing?5los@ 004e228c     LIBCMTD:_userapi_.obj
 0003:000122c0       ??_C@_0BJ@HEGAHDFO@Stack?5pointer?5corruption?$AA@ 004e22c0     LIBCMTD:_userapi_.obj
 0003:000122f8       ??_C@_1O@EGMJNCOI@?$AAf?$AAc?$AAl?$AAo?$AAs?$AAe?$AA?$AA@ 004e22f8     LIBCMTD:fclose.obj
 0003:00012308       ??_C@_1GA@KMIDAPAP@?$AAf?$AA?3?$AA?2?$AAd?$AAd?$AA?2?$AAv?$AAc?$AAt?$AAo?$AAo?$AAl?$AAs?$AA?2?$AAc?$AAr?$AAt?$AA_?$AAb?$AAl?$AAd?$AA?2?$AAs?$AAe?$AAl?$AAf?$AA_?$AAx?$AA8?$AA6?$AA?2?$AAc@ 004e2308     LIBCMTD:fclose.obj
 0003:0001237c       ??_C@_1BO@JINCABEC@?$AA_?$AAf?$AAc?$AAl?$AAo?$AAs?$AAe?$AA_?$AAn?$AAo?$AAl?$AAo?$AAc?$AAk?$AA?$AA@ 004e237c     LIBCMTD:fclose.obj
 0003:000123a0       ??_C@_1DG@LNNHNFHJ@?$AA?$CI?$AA_?$AAo?$AAs?$AAf?$AAi?$AAl?$AAe?$AA?$CI?$AAf?$AAi?$AAl?$AAe?$AAd?$AAe?$AAs?$AA?$CJ?$AA?5?$AA?$CG?$AA?5?$AAF?$AAO?$AAP?$AAE?$AAN?$AA?$CJ?$AA?$AA@ 004e23a0     LIBCMTD:commit.obj
 0003:000123e0       ??_C@_1BA@FLNMBBIM@?$AA_?$AAc?$AAo?$AAm?$AAm?$AAi?$AAt?$AA?$AA@ 004e23e0     LIBCMTD:commit.obj
 0003:000123f8       ??_C@_1GA@BOPCOCFN@?$AAf?$AA?3?$AA?2?$AAd?$AAd?$AA?2?$AAv?$AAc?$AAt?$AAo?$AAo?$AAl?$AAs?$AA?2?$AAc?$AAr?$AAt?$AA_?$AAb?$AAl?$AAd?$AA?2?$AAs?$AAe?$AAl?$AAf?$AA_?$AAx?$AA8?$AA6?$AA?2?$AAc@ 004e23f8     LIBCMTD:commit.obj
 0003:00012470       ??_C@_1HC@KFLBHHBC@?$AA?$CI?$AAf?$AAi?$AAl?$AAe?$AAd?$AAe?$AAs?$AA?5?$AA?$DO?$AA?$DN?$AA?5?$AA0?$AA?5?$AA?$CG?$AA?$CG?$AA?5?$AA?$CI?$AAu?$AAn?$AAs?$AAi?$AAg?$AAn?$AAe?$AAd?$AA?$CJ?$AAf?$AAi?$AAl?$AAe?$AAd@ 004e2470     LIBCMTD:commit.obj
 0003:000124f8       ??_C@_1FO@IFEMNBMO@?$AAf?$AA?3?$AA?2?$AAd?$AAd?$AA?2?$AAv?$AAc?$AAt?$AAo?$AAo?$AAl?$AAs?$AA?2?$AAc?$AAr?$AAt?$AA_?$AAb?$AAl?$AAd?$AA?2?$AAs?$AAe?$AAl?$AAf?$AA_?$AAx?$AA8?$AA6?$AA?2?$AAc@ 004e24f8     LIBCMTD:a_cmp.obj
 0003:00012568       ??_C@_1HK@ELDMAMK@?$AAc?$AAc?$AAh?$AAC?$AAo?$AAu?$AAn?$AAt?$AA1?$AA?$DN?$AA?$DN?$AA0?$AA?5?$AA?$CG?$AA?$CG?$AA?5?$AAc?$AAc?$AAh?$AAC?$AAo?$AAu?$AAn?$AAt?$AA2?$AA?$DN?$AA?$DN?$AA1?$AA?5?$AA?$HM?$AA?$HM?$AA?5@ 004e2568     LIBCMTD:a_cmp.obj
 0003:000125fc       ??_C@_1CC@CNADELFK@?$AA_?$AAs?$AAt?$AAr?$AAi?$AAn?$AAg?$AA2?$AA?5?$AA?$CB?$AA?$DN?$AA?5?$AAN?$AAU?$AAL?$AAL?$AA?$AA@ 004e25fc     LIBCMTD:strnicol.obj
 0003:00012624       ??_C@_1BK@IOJEBPLP@?$AA_?$AAs?$AAt?$AAr?$AAn?$AAi?$AAc?$AAo?$AAl?$AAl?$AA_?$AAl?$AA?$AA@ 004e2624     LIBCMTD:strnicol.obj
 0003:00012648       ??_C@_1GE@BDOBNJJ@?$AAf?$AA?3?$AA?2?$AAd?$AAd?$AA?2?$AAv?$AAc?$AAt?$AAo?$AAo?$AAl?$AAs?$AA?2?$AAc?$AAr?$AAt?$AA_?$AAb?$AAl?$AAd?$AA?2?$AAs?$AAe?$AAl?$AAf?$AA_?$AAx?$AA8?$AA6?$AA?2?$AAc@ 004e2648     LIBCMTD:strnicol.obj
 0003:000126c0       ??_C@_1CC@ICKKAGJA@?$AA_?$AAs?$AAt?$AAr?$AAi?$AAn?$AAg?$AA1?$AA?5?$AA?$CB?$AA?$DN?$AA?5?$AAN?$AAU?$AAL?$AAL?$AA?$AA@ 004e26c0     LIBCMTD:strnicol.obj
 0003:000126e8       ??_C@_1FG@OKIAKKPK@?$AAs?$AAt?$AAr?$AAc?$AAp?$AAy?$AA_?$AAs?$AA?$CI?$AAn?$AAa?$AAm?$AAe?$AA?0?$AA?5?$AAs?$AAt?$AAr?$AAl?$AAe?$AAn?$AA?$CI?$AAo?$AAp?$AAt?$AAi?$AAo?$AAn?$AA?$CJ?$AA?5?$AA?$CL?$AA?5@ 004e26e8     LIBCMTD:setenv.obj
 0003:00012750       ??_C@_1EI@GHDNAPMG@?$AA?$CI?$AA?$CC?$AAC?$AAR?$AAT?$AA?5?$AAL?$AAo?$AAg?$AAi?$AAc?$AA?5?$AAe?$AAr?$AAr?$AAo?$AAr?$AA?5?$AAd?$AAu?$AAr?$AAi?$AAn?$AAg?$AA?5?$AAs?$AAe?$AAt?$AAe?$AAn?$AAv?$AA?$CC@ 004e2750     LIBCMTD:setenv.obj
 0003:000127a8       ??_C@_0DA@NHJGCDK@f?3?2dd?2vctools?2crt_bld?2self_x86?2c@ 004e27a8     LIBCMTD:setenv.obj
 0003:000127e8       ??_C@_1FC@EEJIEIDF@?$AA_?$AAt?$AAc?$AAs?$AAn?$AAl?$AAe?$AAn?$AA?$CI?$AAe?$AAq?$AAu?$AAa?$AAl?$AA?5?$AA?$CL?$AA?5?$AA1?$AA?0?$AA?5?$AA_?$AAM?$AAA?$AAX?$AA_?$AAE?$AAN?$AAV?$AA?$CJ?$AA?5?$AA?$DM?$AA?5@ 004e27e8     LIBCMTD:setenv.obj
 0003:0001284c       ??_C@_1DE@EEHFNNGH@?$AAe?$AAq?$AAu?$AAa?$AAl?$AA?5?$AA?9?$AA?5?$AAo?$AAp?$AAt?$AAi?$AAo?$AAn?$AA?5?$AA?$DM?$AA?5?$AA_?$AAM?$AAA?$AAX?$AA_?$AAE?$AAN?$AAV?$AA?$AA@ 004e284c     LIBCMTD:setenv.obj
 0003:0001288c       ??_C@_1BI@CDAFOAAL@?$AA_?$AA_?$AAc?$AAr?$AAt?$AAs?$AAe?$AAt?$AAe?$AAn?$AAv?$AA?$AA@ 004e288c     LIBCMTD:setenv.obj
 0003:000128a8       ??_C@_1GA@KKPDKNLP@?$AAf?$AA?3?$AA?2?$AAd?$AAd?$AA?2?$AAv?$AAc?$AAt?$AAo?$AAo?$AAl?$AAs?$AA?2?$AAc?$AAr?$AAt?$AA_?$AAb?$AAl?$AAd?$AA?2?$AAs?$AAe?$AAl?$AAf?$AA_?$AAx?$AA8?$AA6?$AA?2?$AAc@ 004e28a8     LIBCMTD:setenv.obj
 0003:0001291c       ??_C@_1CA@LMBEKBDN@?$AAp?$AAo?$AAp?$AAt?$AAi?$AAo?$AAn?$AA?5?$AA?$CB?$AA?$DN?$AA?5?$AAN?$AAU?$AAL?$AAL?$AA?$AA@ 004e291c     LIBCMTD:setenv.obj
 0003:00012948       ??_C@_1FK@DNFLNPD@?$AAs?$AAt?$AAr?$AAc?$AAp?$AAy?$AA_?$AAs?$AA?$CI?$AA?$CK?$AAn?$AAe?$AAw?$AAe?$AAn?$AAv?$AAp?$AAt?$AAr?$AA?0?$AA?5?$AAe?$AAn?$AAv?$AAp?$AAt?$AAr?$AAS?$AAi?$AAz?$AAe?$AA?0@ 004e2948     LIBCMTD:setenv.obj
 0003:000129b4       ??_C@_1BK@ECKIJLPM@?$AAc?$AAo?$AAp?$AAy?$AA_?$AAe?$AAn?$AAv?$AAi?$AAr?$AAo?$AAn?$AA?$AA@ 004e29b4     LIBCMTD:setenv.obj
 0003:000129d4       ??_C@_1O@EDEJGJBM@?$AA_?$AAc?$AAl?$AAo?$AAs?$AAe?$AA?$AA@ 004e29d4     LIBCMTD:close.obj
 0003:000129e8       ??_C@_1FO@NNGNFGFH@?$AAf?$AA?3?$AA?2?$AAd?$AAd?$AA?2?$AAv?$AAc?$AAt?$AAo?$AAo?$AAl?$AAs?$AA?2?$AAc?$AAr?$AAt?$AA_?$AAb?$AAl?$AAd?$AA?2?$AAs?$AAe?$AAl?$AAf?$AA_?$AAx?$AA8?$AA6?$AA?2?$AAc@ 004e29e8     LIBCMTD:close.obj
 0003:00012a58       ??_C@_1GE@MIMBMOF@?$AAf?$AA?3?$AA?2?$AAd?$AAd?$AA?2?$AAv?$AAc?$AAt?$AAo?$AAo?$AAl?$AAs?$AA?2?$AAc?$AAr?$AAt?$AA_?$AAb?$AAl?$AAd?$AA?2?$AAs?$AAe?$AAl?$AAf?$AA_?$AAx?$AA8?$AA6?$AA?2?$AAc@ 004e2a58     LIBCMTD:_freebuf.obj
 0003:00012ad0       ??_C@_1BO@KIJENGPH@?$AAs?$AAt?$AAr?$AAe?$AAa?$AAm?$AA?5?$AA?$CB?$AA?$DN?$AA?5?$AAN?$AAU?$AAL?$AAL?$AA?$AA@ 004e2ad0     LIBCMTD:_freebuf.obj
 0003:00012af4       ??_C@_1BE@JKKFLIKJ@?$AA_?$AAm?$AAb?$AAs?$AAc?$AAh?$AAr?$AA_?$AAl?$AA?$AA@ 004e2af4     LIBCMTD:mbschr.obj
 0003:00012b10       ??_C@_1GA@GDCAGKMG@?$AAf?$AA?3?$AA?2?$AAd?$AAd?$AA?2?$AAv?$AAc?$AAt?$AAo?$AAo?$AAl?$AAs?$AA?2?$AAc?$AAr?$AAt?$AA_?$AAb?$AAl?$AAd?$AA?2?$AAs?$AAe?$AAl?$AAf?$AA_?$AAx?$AA8?$AA6?$AA?2?$AAc@ 004e2b10     LIBCMTD:mbschr.obj
 0003:00012b84       ??_C@_1BO@JIBAMMGI@?$AAs?$AAt?$AAr?$AAi?$AAn?$AAg?$AA?5?$AA?$CB?$AA?$DN?$AA?5?$AAN?$AAU?$AAL?$AAL?$AA?$AA@ 004e2b84     LIBCMTD:mbschr.obj
 0003:00012ba8       ??_C@_1DO@MOGEFOMO@?$AAs?$AAt?$AAr?$AAc?$AAp?$AAy?$AA_?$AAs?$AA?$CI?$AAm?$AAe?$AAm?$AAo?$AAr?$AAy?$AA?0?$AA?5?$AAs?$AAi?$AAz?$AAe?$AA?0?$AA?5?$AAs?$AAt?$AAr?$AAi?$AAn?$AAg?$AA?$CJ?$AA?$AA@ 004e2ba8     LIBCMTD:strdup.obj
 0003:00012bf4       ??_C@_1BI@CBNECNIC@?$AA_?$AAs?$AAt?$AAr?$AAd?$AAu?$AAp?$AA_?$AAd?$AAb?$AAg?$AA?$AA@ 004e2bf4     LIBCMTD:strdup.obj
 0003:00012c10       ??_C@_1GA@JIPKHGPB@?$AAf?$AA?3?$AA?2?$AAd?$AAd?$AA?2?$AAv?$AAc?$AAt?$AAo?$AAo?$AAl?$AAs?$AA?2?$AAc?$AAr?$AAt?$AA_?$AAb?$AAl?$AAd?$AA?2?$AAs?$AAe?$AAl?$AAf?$AA_?$AAx?$AA8?$AA6?$AA?2?$AAc@ 004e2c10     LIBCMTD:strdup.obj
 0003:00013310       ??_R4TBroadcastList@@6B@   004e3310     cfg.obj
 0003:00013328       ??_R3TBroadcastList@@8     004e3328     cfg.obj
 0003:0001333c       ??_R2TBroadcastList@@8     004e333c     cfg.obj
 0003:00013348       ??_R1A@?0A@EA@TBroadcastList@@8 004e3348     cfg.obj
 0003:0001336c       ??_R1A@?0A@EA@TList@@8     004e336c     cfg.obj
 0003:00013390       ??_R3TList@@8              004e3390     cfg.obj
 0003:000133a4       ??_R2TList@@8              004e33a4     cfg.obj
 0003:000133ac       ??_R4TMsgApp@@6B@          004e33ac     Ipmsg.obj
 0003:000133c4       ??_R3TMsgApp@@8            004e33c4     Ipmsg.obj
 0003:000133d8       ??_R2TMsgApp@@8            004e33d8     Ipmsg.obj
 0003:000133e4       ??_R1A@?0A@EA@TMsgApp@@8   004e33e4     Ipmsg.obj
 0003:00013408       ??_R1A@?0A@EA@TApp@@8      004e3408     Ipmsg.obj
 0003:0001342c       ??_R3TApp@@8               004e342c     Ipmsg.obj
 0003:00013440       ??_R2TApp@@8               004e3440     Ipmsg.obj
 0003:00013448       ??_R4TLogDlg@@6B@          004e3448     Logdlg.obj
 0003:00013460       ??_R3TLogDlg@@8            004e3460     Logdlg.obj
 0003:00013474       ??_R2TLogDlg@@8            004e3474     Logdlg.obj
 0003:00013484       ??_R1A@?0A@EA@TLogDlg@@8   004e3484     Logdlg.obj
 0003:000134a8       ??_R1A@?0A@EA@TDlg@@8      004e34a8     Logdlg.obj
 0003:000134cc       ??_R3TDlg@@8               004e34cc     Logdlg.obj
 0003:000134e0       ??_R2TDlg@@8               004e34e0     Logdlg.obj
 0003:000134ec       ??_R1A@?0A@EA@TWin@@8      004e34ec     Logdlg.obj
 0003:00013510       ??_R3TWin@@8               004e3510     Logdlg.obj
 0003:00013524       ??_R2TWin@@8               004e3524     Logdlg.obj
 0003:0001352c       ??_R4TMainWin@@6B@         004e352c     Mainwin.obj
 0003:00013544       ??_R3TMainWin@@8           004e3544     Mainwin.obj
 0003:00013558       ??_R2TMainWin@@8           004e3558     Mainwin.obj
 0003:00013564       ??_R1A@?0A@EA@TMainWin@@8  004e3564     Mainwin.obj
 0003:00013588       ??_R4TMsgDlg@@6B@          004e3588     Miscdlg.obj
 0003:000135a0       ??_R3TMsgDlg@@8            004e35a0     Miscdlg.obj
 0003:000135b4       ??_R2TMsgDlg@@8            004e35b4     Miscdlg.obj
 0003:000135d0       ??_R1A@?0A@EA@TMsgDlg@@8   004e35d0     Miscdlg.obj
 0003:000135f4       ??_R1A@?0A@EA@TListDlg@@8  004e35f4     Miscdlg.obj
 0003:00013618       ??_R3TListDlg@@8           004e3618     Miscdlg.obj
 0003:0001362c       ??_R2TListDlg@@8           004e362c     Miscdlg.obj
 0003:00013640       ??_R1DA@?0A@EA@TListObj@@8 004e3640     Miscdlg.obj
 0003:00013664       ??_R3TListObj@@8           004e3664     Miscdlg.obj
 0003:00013678       ??_R2TListObj@@8           004e3678     Miscdlg.obj
 0003:00013680       ??_R1A@?0A@EA@TListObj@@8  004e3680     Miscdlg.obj
 0003:000136a4       ??_R4TListDlg@@6B@         004e36a4     Miscdlg.obj
 0003:000136bc       ??_R4TAboutDlg@@6B@        004e36bc     Miscdlg.obj
 0003:000136d4       ??_R3TAboutDlg@@8          004e36d4     Miscdlg.obj
 0003:000136e8       ??_R2TAboutDlg@@8          004e36e8     Miscdlg.obj
 0003:000136f8       ??_R1A@?0A@EA@TAboutDlg@@8 004e36f8     Miscdlg.obj
 0003:0001371c       ??_R4TListViewEx@@6B@      004e371c     Miscdlg.obj
 0003:00013734       ??_R3TListViewEx@@8        004e3734     Miscdlg.obj
 0003:00013748       ??_R2TListViewEx@@8        004e3748     Miscdlg.obj
 0003:0001375c       ??_R1A@?0A@EA@TListViewEx@@8 004e375c     Miscdlg.obj
 0003:00013780       ??_R1A@?0A@EA@TSubClassCtl@@8 004e3780     Miscdlg.obj
 0003:000137a4       ??_R3TSubClassCtl@@8       004e37a4     Miscdlg.obj
 0003:000137b8       ??_R2TSubClassCtl@@8       004e37b8     Miscdlg.obj
 0003:000137c8       ??_R1A@?0A@EA@TSubClass@@8 004e37c8     Miscdlg.obj
 0003:000137ec       ??_R3TSubClass@@8          004e37ec     Miscdlg.obj
 0003:00013800       ??_R2TSubClass@@8          004e3800     Miscdlg.obj
 0003:0001380c       ??_R4TEditSub@@6B@         004e380c     Miscdlg.obj
 0003:00013824       ??_R3TEditSub@@8           004e3824     Miscdlg.obj
 0003:00013838       ??_R2TEditSub@@8           004e3838     Miscdlg.obj
 0003:0001384c       ??_R1A@?0A@EA@TEditSub@@8  004e384c     Miscdlg.obj
 0003:00013870       ??_R4TSeparateSub@@6B@     004e3870     Miscdlg.obj
 0003:00013888       ??_R3TSeparateSub@@8       004e3888     Miscdlg.obj
 0003:0001389c       ??_R2TSeparateSub@@8       004e389c     Miscdlg.obj
 0003:000138b0       ??_R1A@?0A@EA@TSeparateSub@@8 004e38b0     Miscdlg.obj
 0003:000138d4       ??_R4TAbsenceDlg@@6B@      004e38d4     Miscdlg.obj
 0003:000138ec       ??_R3TAbsenceDlg@@8        004e38ec     Miscdlg.obj
 0003:00013900       ??_R2TAbsenceDlg@@8        004e3900     Miscdlg.obj
 0003:00013910       ??_R1A@?0A@EA@TAbsenceDlg@@8 004e3910     Miscdlg.obj
 0003:00013934       ??_R4TSortDlg@@6B@         004e3934     Miscdlg.obj
 0003:0001394c       ??_R3TSortDlg@@8           004e394c     Miscdlg.obj
 0003:00013960       ??_R2TSortDlg@@8           004e3960     Miscdlg.obj
 0003:00013970       ??_R1A@?0A@EA@TSortDlg@@8  004e3970     Miscdlg.obj
 0003:00013994       ??_R4TUrlDlg@@6B@          004e3994     Miscdlg.obj
 0003:000139ac       ??_R3TUrlDlg@@8            004e39ac     Miscdlg.obj
 0003:000139c0       ??_R2TUrlDlg@@8            004e39c0     Miscdlg.obj
 0003:000139d0       ??_R1A@?0A@EA@TUrlDlg@@8   004e39d0     Miscdlg.obj
 0003:000139f4       ??_R4TPasswordDlg@@6B@     004e39f4     Miscdlg.obj
 0003:00013a0c       ??_R3TPasswordDlg@@8       004e3a0c     Miscdlg.obj
 0003:00013a20       ??_R2TPasswordDlg@@8       004e3a20     Miscdlg.obj
 0003:00013a30       ??_R1A@?0A@EA@TPasswordDlg@@8 004e3a30     Miscdlg.obj
 0003:00013a54       ??_R4TPasswdChangeDlg@@6B@ 004e3a54     Miscdlg.obj
 0003:00013a6c       ??_R3TPasswdChangeDlg@@8   004e3a6c     Miscdlg.obj
 0003:00013a80       ??_R2TPasswdChangeDlg@@8   004e3a80     Miscdlg.obj
 0003:00013a90       ??_R1A@?0A@EA@TPasswdChangeDlg@@8 004e3a90     Miscdlg.obj
 0003:00013ab4       ??_R4TFindDlg@@6B@         004e3ab4     Miscdlg.obj
 0003:00013acc       ??_R3TFindDlg@@8           004e3acc     Miscdlg.obj
 0003:00013ae0       ??_R2TFindDlg@@8           004e3ae0     Miscdlg.obj
 0003:00013af0       ??_R1A@?0A@EA@TFindDlg@@8  004e3af0     Miscdlg.obj
 0003:00013b14       ??_R4TRecvDlg@@6B@         004e3b14     Recvdlg.obj
 0003:00013b2c       ??_R3TRecvDlg@@8           004e3b2c     Recvdlg.obj
 0003:00013b40       ??_R2TRecvDlg@@8           004e3b40     Recvdlg.obj
 0003:00013b5c       ??_R1A@?0A@EA@TRecvDlg@@8  004e3b5c     Recvdlg.obj
 0003:00013b80       ??_R4RecvTransEndDlg@@6B@  004e3b80     Recvdlg.obj
 0003:00013b98       ??_R3RecvTransEndDlg@@8    004e3b98     Recvdlg.obj
 0003:00013bac       ??_R2RecvTransEndDlg@@8    004e3bac     Recvdlg.obj
 0003:00013bbc       ??_R1A@?0A@EA@RecvTransEndDlg@@8 004e3bbc     Recvdlg.obj
 0003:00013be0       ??_R4TSendDlg@@6B@         004e3be0     Senddlg.obj
 0003:00013bf8       ??_R3TSendDlg@@8           004e3bf8     Senddlg.obj
 0003:00013c0c       ??_R2TSendDlg@@8           004e3c0c     Senddlg.obj
 0003:00013c28       ??_R1A@?0A@EA@TSendDlg@@8  004e3c28     Senddlg.obj
 0003:00013c4c       ??_R4TSetupDlg@@6B@        004e3c4c     Setupdlg.obj
 0003:00013c64       ??_R3TSetupDlg@@8          004e3c64     Setupdlg.obj
 0003:00013c78       ??_R2TSetupDlg@@8          004e3c78     Setupdlg.obj
 0003:00013c88       ??_R1A@?0A@EA@TSetupDlg@@8 004e3c88     Setupdlg.obj
 0003:00013cac       ??_R4TShareDlg@@6B@        004e3cac     share.obj
 0003:00013cc4       ??_R3TShareDlg@@8          004e3cc4     share.obj
 0003:00013cd8       ??_R2TShareDlg@@8          004e3cd8     share.obj
 0003:00013ce8       ??_R1A@?0A@EA@TShareDlg@@8 004e3ce8     share.obj
 0003:00013d0c       ??_R4TShareStatDlg@@6B@    004e3d0c     share.obj
 0003:00013d24       ??_R3TShareStatDlg@@8      004e3d24     share.obj
 0003:00013d38       ??_R2TShareStatDlg@@8      004e3d38     share.obj
 0003:00013d48       ??_R1A@?0A@EA@TShareStatDlg@@8 004e3d48     share.obj
 0003:00013d6c       ??_R4TSaveCommonDlg@@6B@   004e3d6c     share.obj
 0003:00013d84       ??_R3TSaveCommonDlg@@8     004e3d84     share.obj
 0003:00013d98       ??_R2TSaveCommonDlg@@8     004e3d98     share.obj
 0003:00013da8       ??_R1A@?0A@EA@TSaveCommonDlg@@8 004e3da8     share.obj
 0003:00013dcc       ??_R4TApp@@6B@             004e3dcc     Tapp.obj
 0003:00013de4       ??_R4TDlg@@6B@             004e3de4     Tdlg.obj
 0003:00013dfc       ??_R4TList@@6B@            004e3dfc     Tlist.obj
 0003:00013e14       ??_R4TWin@@6B@             004e3e14     Twin.obj
 0003:00013e2c       ??_R4TSubClass@@6B@        004e3e2c     Twin.obj
 0003:00013e44       ??_R4TSubClassCtl@@6B@     004e3e44     Twin.obj
 0003:00013e5c       ??_R4bad_alloc@std@@6B@    004e3e5c     LIBCMTD:new.obj
 0003:00013e74       ??_R3bad_alloc@std@@8      004e3e74     LIBCMTD:new.obj
 0003:00013e88       ??_R2bad_alloc@std@@8      004e3e88     LIBCMTD:new.obj
 0003:00013e94       ??_R1A@?0A@EA@bad_alloc@std@@8 004e3e94     LIBCMTD:new.obj
 0003:00013eb8       ??_R1A@?0A@EA@exception@std@@8 004e3eb8     LIBCMTD:new.obj
 0003:00013edc       ??_R3exception@std@@8      004e3edc     LIBCMTD:new.obj
 0003:00013ef0       ??_R2exception@std@@8      004e3ef0     LIBCMTD:new.obj
 0003:00013ef8       ??_R4type_info@@6B@        004e3ef8     LIBCMTD:typinfo.obj
 0003:00013f10       ??_R3type_info@@8          004e3f10     LIBCMTD:typinfo.obj
 0003:00013f24       ??_R2type_info@@8          004e3f24     LIBCMTD:typinfo.obj
 0003:00013f2c       ??_R1A@?0A@EA@type_info@@8 004e3f2c     LIBCMTD:typinfo.obj
 0003:00013f50       ??_R4exception@std@@6B@    004e3f50     LIBCMTD:stdexcpt.obj
 0003:00013f68       ??_R4bad_cast@std@@6B@     004e3f68     LIBCMTD:stdexcpt.obj
 0003:00013f80       ??_R3bad_cast@std@@8       004e3f80     LIBCMTD:stdexcpt.obj
 0003:00013f94       ??_R2bad_cast@std@@8       004e3f94     LIBCMTD:stdexcpt.obj
 0003:00013fa0       ??_R1A@?0A@EA@bad_cast@std@@8 004e3fa0     LIBCMTD:stdexcpt.obj
 0003:00013fc4       ??_R4bad_typeid@std@@6B@   004e3fc4     LIBCMTD:stdexcpt.obj
 0003:00013fdc       ??_R3bad_typeid@std@@8     004e3fdc     LIBCMTD:stdexcpt.obj
 0003:00013ff0       ??_R2bad_typeid@std@@8     004e3ff0     LIBCMTD:stdexcpt.obj
 0003:00013ffc       ??_R1A@?0A@EA@bad_typeid@std@@8 004e3ffc     LIBCMTD:stdexcpt.obj
 0003:00014020       ??_R4__non_rtti_object@std@@6B@ 004e4020     LIBCMTD:stdexcpt.obj
 0003:00014038       ??_R3__non_rtti_object@std@@8 004e4038     LIBCMTD:stdexcpt.obj
 0003:0001404c       ??_R2__non_rtti_object@std@@8 004e404c     LIBCMTD:stdexcpt.obj
 0003:0001405c       ??_R1A@?0A@EA@__non_rtti_object@std@@8 004e405c     LIBCMTD:stdexcpt.obj
 0003:00014080       ??_R4bad_exception@std@@6B@ 004e4080     LIBCMTD:frame.obj
 0003:00014098       ??_R3bad_exception@std@@8  004e4098     LIBCMTD:frame.obj
 0003:000140ac       ??_R2bad_exception@std@@8  004e40ac     LIBCMTD:frame.obj
 0003:000140b8       ??_R1A@?0A@EA@bad_exception@std@@8 004e40b8     LIBCMTD:frame.obj
 0003:00014234       ___rtc_iaa                 004e4234     LIBCMTD:_initsect_.obj
 0003:00014338       ___rtc_izz                 004e4338     LIBCMTD:_initsect_.obj
 0003:0001443c       ___rtc_taa                 004e443c     LIBCMTD:_initsect_.obj
 0003:00014540       ___rtc_tzz                 004e4540     LIBCMTD:_initsect_.obj
 0003:00014f2c       __TI2?AVbad_alloc@std@@    004e4f2c     LIBCMTD:new.obj
 0003:00014f40       __CTA2?AVbad_alloc@std@@   004e4f40     LIBCMTD:new.obj
 0003:00014f50       __CT??_R0?AVbad_alloc@std@@@8??0bad_alloc@std@@QAE@ABV01@@Z12 004e4f50     LIBCMTD:new.obj
 0003:00014f70       __CT??_R0?AVexception@std@@@8??0exception@std@@QAE@ABV01@@Z12 004e4f70     LIBCMTD:new.obj
 0003:00015270       __TI2?AVbad_exception@std@@ 004e5270     LIBCMTD:frame.obj
 0003:00015284       __CTA2?AVbad_exception@std@@ 004e5284     LIBCMTD:frame.obj
 0003:00015294       __CT??_R0?AVbad_exception@std@@@8??0bad_exception@std@@QAE@ABV01@@Z12 004e5294     LIBCMTD:frame.obj
 0004:00001390       ?DefaultUrlProtocol@@3PAPADA 004e8390     cfg.obj
 0004:000013a8       ?DefaultAbsence@@3PAPADA   004e83a8     cfg.obj
 0004:000013c8       ?DefaultAbsenceHead@@3PAPADA 004e83c8     cfg.obj
 0004:000013fc       ??_R0?AVTBroadcastList@@@8 004e83fc     cfg.obj
 0004:00001420       ??_R0?AVTList@@@8          004e8420     cfg.obj
 0004:0000143c       ??_R0?AVTMsgApp@@@8        004e843c     Ipmsg.obj
 0004:00001458       ??_R0?AVTApp@@@8           004e8458     Ipmsg.obj
 0004:00001474       ??_R0?AVTLogDlg@@@8        004e8474     Logdlg.obj
 0004:00001490       ??_R0?AVTDlg@@@8           004e8490     Logdlg.obj
 0004:000014a8       ??_R0?AVTWin@@@8           004e84a8     Logdlg.obj
 0004:000014c8       ??_R0?AVTMainWin@@@8       004e84c8     Mainwin.obj
 0004:00001518       ??_R0?AVTMsgDlg@@@8        004e8518     Miscdlg.obj
 0004:00001534       ??_R0?AVTListDlg@@@8       004e8534     Miscdlg.obj
 0004:00001550       ??_R0?AUTListObj@@@8       004e8550     Miscdlg.obj
 0004:0000156c       ??_R0?AVTAboutDlg@@@8      004e856c     Miscdlg.obj
 0004:00001588       ??_R0?AVTListViewEx@@@8    004e8588     Miscdlg.obj
 0004:000015a8       ??_R0?AVTSubClassCtl@@@8   004e85a8     Miscdlg.obj
 0004:000015c8       ??_R0?AVTSubClass@@@8      004e85c8     Miscdlg.obj
 0004:000015e4       ??_R0?AVTEditSub@@@8       004e85e4     Miscdlg.obj
 0004:00001600       ??_R0?AVTSeparateSub@@@8   004e8600     Miscdlg.obj
 0004:00001620       ??_R0?AVTAbsenceDlg@@@8    004e8620     Miscdlg.obj
 0004:00001640       ??_R0?AVTSortDlg@@@8       004e8640     Miscdlg.obj
 0004:0000165c       ??_R0?AVTUrlDlg@@@8        004e865c     Miscdlg.obj
 0004:00001678       ??_R0?AVTPasswordDlg@@@8   004e8678     Miscdlg.obj
 0004:00001698       ??_R0?AVTPasswdChangeDlg@@@8 004e8698     Miscdlg.obj
 0004:000016c0       ??_R0?AVTFindDlg@@@8       004e86c0     Miscdlg.obj
 0004:000016e4       ??_R0?AVTRecvDlg@@@8       004e86e4     Recvdlg.obj
 0004:00001700       ??_R0?AVRecvTransEndDlg@@@8 004e8700     Recvdlg.obj
 0004:00001824       ??_R0?AVTSendDlg@@@8       004e8824     Senddlg.obj
 0004:00001844       ??_R0?AVTSetupDlg@@@8      004e8844     Setupdlg.obj
 0004:00001864       ??_R0?AVTShareDlg@@@8      004e8864     share.obj
 0004:00001880       ??_R0?AVTShareStatDlg@@@8  004e8880     share.obj
 0004:000018a4       ??_R0?AVTSaveCommonDlg@@@8 004e88a4     share.obj
 0004:000018cc       ?defaultClass@TApp@@2PADA  004e88cc     Tapp.obj
 0004:000018e8       ??_R0?AVbad_alloc@std@@@8  004e88e8     LIBCMTD:new.obj
 0004:0000190c       ??_R0?AVexception@std@@@8  004e890c     LIBCMTD:new.obj
 0004:00001930       ___security_cookie         004e8930     LIBCMTD:gs_cookie.obj
 0004:00001934       ___security_cookie_complement 004e8934     LIBCMTD:gs_cookie.obj
 0004:0000193c       ??_R0?AVtype_info@@@8      004e893c     LIBCMTD:typinfo.obj
 0004:00001960       ___app_type                004e8960     LIBCMTD:wincrt0.obj
 0004:00001968       ??_R0?AVbad_cast@std@@@8   004e8968     LIBCMTD:stdexcpt.obj
 0004:00001988       ??_R0?AVbad_typeid@std@@@8 004e8988     LIBCMTD:stdexcpt.obj
 0004:000019ac       ??_R0?AV__non_rtti_object@std@@@8 004e89ac     LIBCMTD:stdexcpt.obj
 0004:00001b34       __crtDbgFlag               004e8b34     LIBCMTD:dbgheap.obj
 0004:00001b38       ___crtDebugFillThreshold   004e8b38     LIBCMTD:dbgheap.obj
 0004:00001b40       __crtBreakAlloc            004e8b40     LIBCMTD:dbgheap.obj
 0004:00001b54       ??_R0?AVbad_exception@std@@@8 004e8b54     LIBCMTD:frame.obj
 0004:00001b80       ___flsindex                004e8b80     LIBCMTD:tidtable.obj
 0004:00001b84       ___getvalueindex           004e8b84     LIBCMTD:tidtable.obj
 0004:00001b90       ___clocalestr              004e8b90     LIBCMTD:nlsdata2.obj
 0004:00001b98       ___initiallocinfo          004e8b98     LIBCMTD:nlsdata2.obj
 0004:00001c70       ___ptlocinfo               004e8c70     LIBCMTD:nlsdata2.obj
 0004:00001c74       ___lc_clike                004e8c74     LIBCMTD:nlsdata2.obj
 0004:00001c78       ___initiallocalestructinfo 004e8c78     LIBCMTD:nlsdata2.obj
 0004:00001e78       ___initialmbcinfo          004e8e78     LIBCMTD:mbctype.obj
 0004:00002098       __mbctype                  004e9098     LIBCMTD:mbctype.obj
 0004:000021a0       __mbcasemap                004e91a0     LIBCMTD:mbctype.obj
 0004:000022a0       ___ptmbcinfo               004e92a0     LIBCMTD:mbctype.obj
 0004:000024a0       ___globallocalestatus      004e94a0     LIBCMTD:glstatus.obj
 0004:000024a4       ___abort_behavior          004e94a4     LIBCMTD:abort.obj
 0004:00002584       __aexit_rtn                004e9584     LIBCMTD:crt0dat.obj
 0004:00002588       __First_FPE_Indx           004e9588     LIBCMTD:winxfltr.obj
 0004:0000258c       __Num_FPE                  004e958c     LIBCMTD:winxfltr.obj
 0004:00002590       __XcptActTabSize           004e9590     LIBCMTD:winxfltr.obj
 0004:00002594       __XcptActTabCount          004e9594     LIBCMTD:winxfltr.obj
 0004:000025a0       ___badioinfo               004e95a0     LIBCMTD:ioinit.obj
 0004:000025ec       __amblksiz                 004e95ec     LIBCMTD:heapinit.obj
 0004:000025f4       __pfnAllocHook             004e95f4     LIBCMTD:dbghook.obj
 0004:000025f8       __crtAssertBusy            004e95f8     LIBCMTD:dbgrptt.obj
 0004:000025fc       __CrtDbgMode               004e95fc     LIBCMTD:dbgrptt.obj
 0004:00002608       __CrtDbgFile               004e9608     LIBCMTD:dbgrptt.obj
 0004:0000261c       __NLG_Destination          004e961c     LIBCMTD:exsup.obj
 0004:00002630       ___lc_time_c               004e9630     LIBCMTD:strftime.obj
 0004:0000270c       ___lc_time_curr            004e970c     LIBCMTD:strftime.obj
 0004:00002710       __pctype                   004e9710     LIBCMTD:ctype.obj
 0004:00002714       __pwctype                  004e9714     LIBCMTD:ctype.obj
 0004:0000271c       ___lconv_static_decimal    004e971c     LIBCMTD:lconv.obj
 0004:00002720       ___lconv_c                 004e9720     LIBCMTD:lconv.obj
 0004:00002750       ___lconv                   004e9750     LIBCMTD:lconv.obj
 0004:00002760       ___mb_cur_max              004e9760     LIBCMTD:nlsdata1.obj
 0004:00002764       ___decimal_point           004e9764     LIBCMTD:nlsdata1.obj
 0004:00002768       ___decimal_point_length    004e9768     LIBCMTD:nlsdata1.obj
 0004:00002770       __cfltcvt_tab              004e9770     LIBCMTD:cmiscdat.obj
 0004:000027a0       ___nullstring              004e97a0     LIBCMTD:output.obj
 0004:000027a4       ___wnullstring             004e97a4     LIBCMTD:output.obj
 0004:000027b0       __timezone                 004e97b0     LIBCMTD:timeset.obj
 0004:000027b4       __daylight                 004e97b4     LIBCMTD:timeset.obj
 0004:000027b8       __dstbias                  004e97b8     LIBCMTD:timeset.obj
 0004:00002840       __tzname                   004e9840     LIBCMTD:timeset.obj
 0004:00002888       __iob                      004e9888     LIBCMTD:_file.obj
 0004:00002b88       __lpdays                   004e9b88     LIBCMTD:days.obj
 0004:00002bbc       __days                     004e9bbc     LIBCMTD:days.obj
 0004:00002c14       ?_RTC_ErrorLevels@@3PAHA   004e9c14     LIBCMTD:_error_.obj
 0004:00002c2c       __coninpfh                 004e9c2c     LIBCMTD:initcon.obj
 0004:00002c30       __confh                    004e9c30     LIBCMTD:initcon.obj
 0004:00002da0       ?pCryptImportKey@@3P6GHKPBEKKKPAK@ZA 004e9da0     Mainwin.obj
 0004:00002da4       ?pCryptSignHash@@3P6GHKKPBDKPAEPAK@ZA 004e9da4     Mainwin.obj
 0004:00002da8       ?pCryptReleaseContext@@3P6GHKK@ZA 004e9da8     Mainwin.obj
 0004:00002dac       ?pCryptVerifySignature@@3P6GHKPBEKKPBDK@ZA 004e9dac     Mainwin.obj
 0004:00002db0       ?pCryptDecrypt@@3P6GHKKHKPAEPAK@ZA 004e9db0     Mainwin.obj
 0004:00002db4       ?pCryptHashData@@3P6GHKPAEKK@ZA 004e9db4     Mainwin.obj
 0004:00002db8       ?pCryptGenKey@@3P6GHKIKPAK@ZA 004e9db8     Mainwin.obj
 0004:00002dbc       ?pCryptExportKey@@3P6GHKKKKPAEPAK@ZA 004e9dbc     Mainwin.obj
 0004:00002dc0       ?pCryptGenRandom@@3P6GHKKPAE@ZA 004e9dc0     Mainwin.obj
 0004:00002dc4       ?pCryptSetKeyParam@@3P6GHKKPAEK@ZA 004e9dc4     Mainwin.obj
 0004:00002e90       ?pCryptGetUserKey@@3P6GHKKPAK@ZA 004e9e90     Mainwin.obj
 0004:00002e94       ?pCryptEncrypt@@3P6GHKKHKPAEPAKK@ZA 004e9e94     Mainwin.obj
 0004:00002e98       ?pCryptGetKeyParam@@3P6GHKKPAEPAKK@ZA 004e9e98     Mainwin.obj
 0004:00002e9c       ?pCryptProtectData@@3P6GHPAU_CRYPTOAPI_BLOB@@PB_W0PAXPAU_CRYPTPROTECT_PROMPTSTRUCT@@K0@ZA 004e9e9c     Mainwin.obj
 0004:00002ea0       ?pCryptUnprotectData@@3P6GHPAU_CRYPTOAPI_BLOB@@PAPA_W0PAXPAU_CRYPTPROTECT_PROMPTSTRUCT@@K0@ZA 004e9ea0     Mainwin.obj
 0004:00002ea4       ?pCryptAcquireContext@@3P6GHPAKPBD1KK@ZA 004e9ea4     Mainwin.obj
 0004:00002ea8       ?pCryptCreateHash@@3P6GHKIKKPAK@ZA 004e9ea8     Mainwin.obj
 0004:00002eac       ?pCryptDestroyKey@@3P6GHK@ZA 004e9eac     Mainwin.obj
 0004:00002eb0       ?hMainIcon@TMainWin@@1PAUHICON__@@A 004e9eb0     Mainwin.obj
 0004:00002eb4       ?hRevIcon@TMainWin@@1PAUHICON__@@A 004e9eb4     Mainwin.obj
 0004:00002eb8       ?mainWin@TMainWin@@1PAV1@A 004e9eb8     Mainwin.obj
 0004:00002f04       ?createCnt@TMsgDlg@@1HA    004e9f04     Miscdlg.obj
 0004:00002f08       ?exclusiveWnd@TSortDlg@@1PAV1@A 004e9f08     Miscdlg.obj
 0004:00002f18       ?createCnt@TRecvDlg@@1HA   004e9f18     Recvdlg.obj
 0004:00002f68       ?wndArray@TApp@@1PAPAVTWin@@A 004e9f68     Tapp.obj
 0004:00002f6c       ?wndCnt@TApp@@1HA          004e9f6c     Tapp.obj
 0004:00002f70       ?preWnd@TApp@@2PAVTWin@@A  004e9f70     Tapp.obj
 0004:00002f74       ?hI@TApp@@2PAUHINSTANCE__@@A 004e9f74     Tapp.obj
 0004:00002f90       __aenvptr                  004e9f90     LIBCMTD:wincrt0.obj
 0004:00002f94       __wenvptr                  004e9f94     LIBCMTD:wincrt0.obj
 0004:00002f98       ___error_mode              004e9f98     LIBCMTD:wincrt0.obj
 0004:00002fa0       ?_pnhHeap@@3P6AHI@ZA       004e9fa0     LIBCMTD:handler.obj
 0004:0000316c       ?_pfnDumpClient@@3P6AXPAXI@ZA 004ea16c     LIBCMTD:dbgheap.obj
 0004:00003174       ___crtDebugCheckCount      004ea174     LIBCMTD:dbgheap.obj
 0004:00003184       _gpFlsAlloc                004ea184     LIBCMTD:tidtable.obj
 0004:00003188       _gpFlsGetValue             004ea188     LIBCMTD:tidtable.obj
 0004:0000318c       _gpFlsSetValue             004ea18c     LIBCMTD:tidtable.obj
 0004:00003190       _gpFlsFree                 004ea190     LIBCMTD:tidtable.obj
 0004:00003198       ?__pInconsistency@@3P6AXXZA 004ea198     LIBCMTD:hooks.obj
 0004:00003570       __newmode                  004ea570     LIBCMTD:_newmode.obj
 0004:00003574       ___lc_handle               004ea574     LIBCMTD:nlsdata2.obj
 0004:0000358c       ___lc_codepage             004ea58c     LIBCMTD:nlsdata2.obj
 0004:00003590       ___lc_collate_cp           004ea590     LIBCMTD:nlsdata2.obj
 0004:0000359c       ___locale_changed          004ea59c     LIBCMTD:setlocal.obj
 0004:000035a0       ___pInvalidArgHandler      004ea5a0     LIBCMTD:invarg.obj
 0004:000035a8       ___mbulinfo                004ea5a8     LIBCMTD:mbctype.obj
 0004:000035b4       ___mbcodepage              004ea5b4     LIBCMTD:mbctype.obj
 0004:000035b8       ___ismbcodepage            004ea5b8     LIBCMTD:mbctype.obj
 0004:000035bc       ___mblcid                  004ea5bc     LIBCMTD:mbctype.obj
 0004:0000398c       ___pPurecall               004ea98c     LIBCMTD:inithelp.obj
 0004:00003994       __umaskval                 004ea994     LIBCMTD:crt0dat.obj
 0004:00003998       ___argc                    004ea998     LIBCMTD:crt0dat.obj
 0004:0000399c       ___argv                    004ea99c     LIBCMTD:crt0dat.obj
 0004:000039a0       ___wargv                   004ea9a0     LIBCMTD:crt0dat.obj
 0004:000039a4       __environ                  004ea9a4     LIBCMTD:crt0dat.obj
 0004:000039a8       ___initenv                 004ea9a8     LIBCMTD:crt0dat.obj
 0004:000039ac       __wenviron                 004ea9ac     LIBCMTD:crt0dat.obj
 0004:000039b0       ___winitenv                004ea9b0     LIBCMTD:crt0dat.obj
 0004:000039b4       __pgmptr                   004ea9b4     LIBCMTD:crt0dat.obj
 0004:000039b8       __wpgmptr                  004ea9b8     LIBCMTD:crt0dat.obj
 0004:000039bc       __exitflag                 004ea9bc     LIBCMTD:crt0dat.obj
 0004:000039c0       __C_Termination_Done       004ea9c0     LIBCMTD:crt0dat.obj
 0004:000039c4       __C_Exit_Done              004ea9c4     LIBCMTD:crt0dat.obj
 0004:00003b18       __crtheap                  004eab18     LIBCMTD:heapinit.obj
 0004:00003b2c       ___sbh_pHeaderDefer        004eab2c     LIBCMTD:sbheap.obj
 0004:00003b74       ?pArgList@UnDecorator@@0PAVReplicator@@A 004eab74     LIBCMTD:undname.obj
 0004:00003b78       ?pZNameList@UnDecorator@@0PAVReplicator@@A 004eab78     LIBCMTD:undname.obj
 0004:00003b7c       ?pTemplateArgList@UnDecorator@@0PAVReplicator@@A 004eab7c     LIBCMTD:undname.obj
 0004:00003b80       ?gName@UnDecorator@@0PBDB  004eab80     LIBCMTD:undname.obj
 0004:00003b84       ?name@UnDecorator@@0PBDB   004eab84     LIBCMTD:undname.obj
 0004:00003b88       ?outputString@UnDecorator@@0PADA 004eab88     LIBCMTD:undname.obj
 0004:00003b8c       ?maxStringLength@UnDecorator@@0HA 004eab8c     LIBCMTD:undname.obj
 0004:00003b90       ?disableFlags@UnDecorator@@0KA 004eab90     LIBCMTD:undname.obj
 0004:00003b94       ?m_pGetParameter@UnDecorator@@0P6APADJ@ZA 004eab94     LIBCMTD:undname.obj
 0004:00003b98       ?fExplicitTemplateParams@UnDecorator@@0_NA 004eab98     LIBCMTD:undname.obj
 0004:00003b99       ?fGetTemplateArgumentList@UnDecorator@@0_NA 004eab99     LIBCMTD:undname.obj
 0004:00003c08       ?nodes@?1??make@DNameStatusNode@@SAPAV2@W4DNameStatus@@@Z@4PAV2@A 004eac08     LIBCMTD:undname.obj
 0004:00003c44       ??_B?1??make@DNameStatusNode@@SAPAV1@W4DNameStatus@@@Z@51 004eac44     LIBCMTD:undname.obj
 0004:00003c48       ___lconv_static_null       004eac48     LIBCMTD:lconv.obj
 0004:00003d4c       __cflush                   004ead4c     LIBCMTD:_file.obj
 0004:00003d54       ?wsprintffp@@3P6AHPADPBDZZA 004ead54     LIBCMTD:_error_.obj
 0004:00003d58       __stdbuf                   004ead58     LIBCMTD:_sftbuf.obj
 0004:00003d80       ___piob                    004ead80     <common>
 0004:000040c0       __bufin                    004eb0c0     <common>
 0004:000050c0       __nstream                  004ec0c0     <common>
 0004:000050c4       __pfnReportHook            004ec0c4     <common>
 0004:000050d4       __pReportHookListW         004ec0d4     <common>
 0004:000050d8       __pReportHookList          004ec0d8     <common>
 0004:000050dc       ___sbh_initialized         004ec0dc     <common>
 0004:000050f0       ___sbh_cntHeaderList       004ec0f0     <common>
 0004:000050f4       ___sbh_pHeaderList         004ec0f4     <common>
 0004:000050f8       ___sbh_threshold           004ec0f8     <common>
 0004:000050fc       ___sbh_pHeaderScan         004ec0fc     <common>
 0004:00005100       ___sbh_sizeHeaderList      004ec100     <common>
 0004:00005104       ___sbh_indGroupDefer       004ec104     <common>
 0004:00005108       __debugger_hook_dummy      004ec108     <common>
 0004:00005114       ___active_heap             004ec114     <common>
 0004:00005120       __nhandle                  004ec120     <common>
 0004:00005160       ___pioinfo                 004ec160     <common>
 0004:00005260       ___env_initialized         004ec260     <common>
 0004:00005270       ___onexitend               004ec270     <common>
 0004:00005274       ___onexitbegin             004ec274     <common>
 0004:00005278       ___mbctype_initialized     004ec278     <common>
 0004:0000527c       __FPinit                   004ec27c     <common>
 0004:00005280       ___dyn_tls_init_callback   004ec280     <common>
 0004:00005284       ___setlc_active            004ec284     <common>
 0004:00005294       ___unguarded_readlc_active 004ec294     <common>
 0004:00005298       ___sse2_available          004ec298     <common>
 0004:000052a4       __acmdln                   004ec2a4     <common>
 0005:00000000       __IMPORT_DESCRIPTOR_WINMM  004ed000     winmm:WINMM.dll
 0005:00000014       __IMPORT_DESCRIPTOR_COMCTL32 004ed014     Comctl32:COMCTL32.dll
 0005:00000028       __IMPORT_DESCRIPTOR_WSOCK32 004ed028     wsock32:WSOCK32.dll
 0005:0000003c       __IMPORT_DESCRIPTOR_KERNEL32 004ed03c     kernel32:KERNEL32.dll
 0005:00000050       __IMPORT_DESCRIPTOR_USER32 004ed050     user32:USER32.dll
 0005:00000064       __IMPORT_DESCRIPTOR_GDI32  004ed064     gdi32:GDI32.dll
 0005:00000078       __IMPORT_DESCRIPTOR_COMDLG32 004ed078     comdlg32:COMDLG32.dll
 0005:0000008c       __IMPORT_DESCRIPTOR_ADVAPI32 004ed08c     advapi32:ADVAPI32.dll
 0005:000000a0       __IMPORT_DESCRIPTOR_SHELL32 004ed0a0     shell32:SHELL32.dll
 0005:000000b4       __IMPORT_DESCRIPTOR_ole32  004ed0b4     ole32:ole32.dll
 0005:000000c8       __NULL_IMPORT_DESCRIPTOR   004ed0c8     winmm:WINMM.dll
 0005:00000790       __imp__GetUserNameA@8      004ed790     advapi32:ADVAPI32.dll
 0005:00000794       __imp__RegEnumValueA@32    004ed794     advapi32:ADVAPI32.dll
 0005:00000798       __imp__RegEnumKeyExA@32    004ed798     advapi32:ADVAPI32.dll
 0005:0000079c       __imp__RegDeleteValueA@8   004ed79c     advapi32:ADVAPI32.dll
 0005:000007a0       __imp__RegDeleteKeyA@8     004ed7a0     advapi32:ADVAPI32.dll
 0005:000007a4       __imp__RegSetValueExA@24   004ed7a4     advapi32:ADVAPI32.dll
 0005:000007a8       __imp__RegQueryValueExA@24 004ed7a8     advapi32:ADVAPI32.dll
 0005:000007ac       __imp__RegQueryValueA@16   004ed7ac     advapi32:ADVAPI32.dll
 0005:000007b0       __imp__RegCloseKey@4       004ed7b0     advapi32:ADVAPI32.dll
 0005:000007b4       __imp__RegCreateKeyExA@36  004ed7b4     advapi32:ADVAPI32.dll
 0005:000007b8       __imp__RegOpenKeyExA@20    004ed7b8     advapi32:ADVAPI32.dll
 0005:000007bc       \177ADVAPI32_NULL_THUNK_DATA 004ed7bc     advapi32:ADVAPI32.dll
 0005:000007f0       __imp__InitCommonControls@0 004ed7f0     Comctl32:COMCTL32.dll
 0005:000007f4       __imp__ImageList_Destroy@4 004ed7f4     Comctl32:COMCTL32.dll
 0005:000007f8       __imp__ImageList_ReplaceIcon@12 004ed7f8     Comctl32:COMCTL32.dll
 0005:000007fc       __imp__ImageList_Create@20 004ed7fc     Comctl32:COMCTL32.dll
 0005:00000800       \177COMCTL32_NULL_THUNK_DATA 004ed800     Comctl32:COMCTL32.dll
 0005:0000082c       __imp__ChooseFontA@4       004ed82c     comdlg32:COMDLG32.dll
 0005:00000830       __imp__GetSaveFileNameA@4  004ed830     comdlg32:COMDLG32.dll
 0005:00000834       __imp__GetOpenFileNameA@4  004ed834     comdlg32:COMDLG32.dll
 0005:00000838       \177COMDLG32_NULL_THUNK_DATA 004ed838     comdlg32:COMDLG32.dll
 0005:00000864       __imp__GetObjectA@12       004ed864     gdi32:GDI32.dll
 0005:00000868       __imp__DeleteObject@4      004ed868     gdi32:GDI32.dll
 0005:0000086c       __imp__CreateFontIndirectA@4 004ed86c     gdi32:GDI32.dll
 0005:00000870       \177GDI32_NULL_THUNK_DATA  004ed870     gdi32:GDI32.dll
 0005:0000089c       __imp__GetStringTypeA@20   004ed89c     kernel32:KERNEL32.dll
 0005:000008a0       __imp__GetDateFormatA@24   004ed8a0     kernel32:KERNEL32.dll
 0005:000008a4       __imp__GetTimeFormatA@24   004ed8a4     kernel32:KERNEL32.dll
 0005:000008a8       __imp__LoadLibraryW@4      004ed8a8     kernel32:KERNEL32.dll
 0005:000008ac       __imp__SetConsoleCtrlHandler@8 004ed8ac     kernel32:KERNEL32.dll
 0005:000008b0       __imp__OutputDebugStringW@4 004ed8b0     kernel32:KERNEL32.dll
 0005:000008b4       __imp__GetVersion@0        004ed8b4     kernel32:KERNEL32.dll
 0005:000008b8       __imp__CloseHandle@4       004ed8b8     kernel32:KERNEL32.dll
 0005:000008bc       __imp__ReleaseMutex@4      004ed8bc     kernel32:KERNEL32.dll
 0005:000008c0       __imp__WaitForSingleObject@8 004ed8c0     kernel32:KERNEL32.dll
 0005:000008c4       __imp__CreateMutexA@12     004ed8c4     kernel32:KERNEL32.dll
 0005:000008c8       __imp__ExitProcess@4       004ed8c8     kernel32:KERNEL32.dll
 0005:000008cc       __imp__GetDriveTypeA@4     004ed8cc     kernel32:KERNEL32.dll
 0005:000008d0       __imp__SetCurrentDirectoryA@4 004ed8d0     kernel32:KERNEL32.dll
 0005:000008d4       __imp__GetWindowsDirectoryA@8 004ed8d4     kernel32:KERNEL32.dll
 0005:000008d8       __imp__GetCurrentDirectoryA@8 004ed8d8     kernel32:KERNEL32.dll
 0005:000008dc       __imp__WriteFile@20        004ed8dc     kernel32:KERNEL32.dll
 0005:000008e0       __imp__SetFilePointer@16   004ed8e0     kernel32:KERNEL32.dll
 0005:000008e4       __imp__CreateFileA@28      004ed8e4     kernel32:KERNEL32.dll
 0005:000008e8       __imp__GetFullPathNameA@16 004ed8e8     kernel32:KERNEL32.dll
 0005:000008ec       __imp__CreateThread@24     004ed8ec     kernel32:KERNEL32.dll
 0005:000008f0       __imp__GetTickCount@0      004ed8f0     kernel32:KERNEL32.dll
 0005:000008f4       __imp__IsBadReadPtr@8      004ed8f4     kernel32:KERNEL32.dll
 0005:000008f8       __imp__MapViewOfFile@20    004ed8f8     kernel32:KERNEL32.dll
 0005:000008fc       __imp__CreateFileMappingA@24 004ed8fc     kernel32:KERNEL32.dll
 0005:00000900       __imp__GetFileSize@8       004ed900     kernel32:KERNEL32.dll
 0005:00000904       __imp__UnmapViewOfFile@4   004ed904     kernel32:KERNEL32.dll
 0005:00000908       __imp__ExitThread@4        004ed908     kernel32:KERNEL32.dll
 0005:0000090c       __imp__FindClose@4         004ed90c     kernel32:KERNEL32.dll
 0005:00000910       __imp__FindNextFileA@8     004ed910     kernel32:KERNEL32.dll
 0005:00000914       __imp__FindFirstFileA@8    004ed914     kernel32:KERNEL32.dll
 0005:00000918       __imp__Sleep@4             004ed918     kernel32:KERNEL32.dll
 0005:0000091c       __imp__GetProcAddress@8    004ed91c     kernel32:KERNEL32.dll
 0005:00000920       __imp__LoadLibraryA@4      004ed920     kernel32:KERNEL32.dll
 0005:00000924       __imp__LocalFree@4         004ed924     kernel32:KERNEL32.dll
 0005:00000928       __imp__GetLastError@0      004ed928     kernel32:KERNEL32.dll
 0005:0000092c       __imp__IsDBCSLeadByte@4    004ed92c     kernel32:KERNEL32.dll
 0005:00000930       __imp__SystemTimeToFileTime@8 004ed930     kernel32:KERNEL32.dll
 0005:00000934       __imp__GetLocalTime@4      004ed934     kernel32:KERNEL32.dll
 0005:00000938       __imp__GetComputerNameA@8  004ed938     kernel32:KERNEL32.dll
 0005:0000093c       __imp__ResumeThread@4      004ed93c     kernel32:KERNEL32.dll
 0005:00000940       __imp__SuspendThread@4     004ed940     kernel32:KERNEL32.dll
 0005:00000944       __imp__SetFileTime@16      004ed944     kernel32:KERNEL32.dll
 0005:00000948       __imp__SetFileAttributesA@8 004ed948     kernel32:KERNEL32.dll
 0005:0000094c       __imp__CreateDirectoryA@8  004ed94c     kernel32:KERNEL32.dll
 0005:00000950       __imp__GetFileAttributesA@4 004ed950     kernel32:KERNEL32.dll
 0005:00000954       __imp__GetSystemTime@4     004ed954     kernel32:KERNEL32.dll
 0005:00000958       __imp__GetFileInformationByHandle@8 004ed958     kernel32:KERNEL32.dll
 0005:0000095c       __imp__FreeLibrary@4       004ed95c     kernel32:KERNEL32.dll
 0005:00000960       __imp__GetStringTypeW@16   004ed960     kernel32:KERNEL32.dll
 0005:00000964       __imp__HeapSize@12         004ed964     kernel32:KERNEL32.dll
 0005:00000968       __imp__HeapAlloc@12        004ed968     kernel32:KERNEL32.dll
 0005:0000096c       __imp__InitializeCriticalSectionAndSpinCount@8 004ed96c     kernel32:KERNEL32.dll
 0005:00000970       __imp__VirtualFree@12      004ed970     kernel32:KERNEL32.dll
 0005:00000974       __imp__HeapFree@12         004ed974     kernel32:KERNEL32.dll
 0005:00000978       __imp__HeapCreate@12       004ed978     kernel32:KERNEL32.dll
 0005:0000097c       __imp__HeapDestroy@4       004ed97c     kernel32:KERNEL32.dll
 0005:00000980       __imp__GetFileType@4       004ed980     kernel32:KERNEL32.dll
 0005:00000984       __imp__SetHandleCount@4    004ed984     kernel32:KERNEL32.dll
 0005:00000988       __imp__GetEnvironmentStringsW@0 004ed988     kernel32:KERNEL32.dll
 0005:0000098c       __imp__FreeEnvironmentStringsW@4 004ed98c     kernel32:KERNEL32.dll
 0005:00000990       __imp__GetEnvironmentStrings@0 004ed990     kernel32:KERNEL32.dll
 0005:00000994       __imp__FreeEnvironmentStringsA@4 004ed994     kernel32:KERNEL32.dll
 0005:00000998       __imp__GetSystemTimeAsFileTime@4 004ed998     kernel32:KERNEL32.dll
 0005:0000099c       __imp__GetCurrentProcessId@0 004ed99c     kernel32:KERNEL32.dll
 0005:000009a0       __imp__QueryPerformanceCounter@4 004ed9a0     kernel32:KERNEL32.dll
 0005:000009a4       __imp__GetStdHandle@4      004ed9a4     kernel32:KERNEL32.dll
 0005:000009a8       __imp__GetModuleFileNameA@12 004ed9a8     kernel32:KERNEL32.dll
 0005:000009ac       __imp__LCMapStringW@24     004ed9ac     kernel32:KERNEL32.dll
 0005:000009b0       __imp__LCMapStringA@24     004ed9b0     kernel32:KERNEL32.dll
 0005:000009b4       __imp__MultiByteToWideChar@24 004ed9b4     kernel32:KERNEL32.dll
 0005:000009b8       __imp__WideCharToMultiByte@32 004ed9b8     kernel32:KERNEL32.dll
 0005:000009bc       __imp__IsValidCodePage@4   004ed9bc     kernel32:KERNEL32.dll
 0005:000009c0       __imp__GetCPInfo@8         004ed9c0     kernel32:KERNEL32.dll
 0005:000009c4       __imp__GetOEMCP@0          004ed9c4     kernel32:KERNEL32.dll
 0005:000009c8       __imp__GetACP@0            004ed9c8     kernel32:KERNEL32.dll
 0005:000009cc       __imp__IsDebuggerPresent@0 004ed9cc     kernel32:KERNEL32.dll
 0005:000009d0       __imp__SetUnhandledExceptionFilter@4 004ed9d0     kernel32:KERNEL32.dll
 0005:000009d4       __imp__UnhandledExceptionFilter@4 004ed9d4     kernel32:KERNEL32.dll
 0005:000009d8       __imp__GetCurrentProcess@0 004ed9d8     kernel32:KERNEL32.dll
 0005:000009dc       __imp__TerminateProcess@8  004ed9dc     kernel32:KERNEL32.dll
 0005:000009e0       __imp__GetCurrentThread@0  004ed9e0     kernel32:KERNEL32.dll
 0005:000009e4       __imp__InterlockedDecrement@4 004ed9e4     kernel32:KERNEL32.dll
 0005:000009e8       __imp__SetLastError@4      004ed9e8     kernel32:KERNEL32.dll
 0005:000009ec       __imp__InterlockedIncrement@4 004ed9ec     kernel32:KERNEL32.dll
 0005:000009f0       __imp__TlsFree@4           004ed9f0     kernel32:KERNEL32.dll
 0005:000009f4       __imp__GetCurrentThreadId@0 004ed9f4     kernel32:KERNEL32.dll
 0005:000009f8       __imp__TlsSetValue@8       004ed9f8     kernel32:KERNEL32.dll
 0005:000009fc       __imp__TlsAlloc@0          004ed9fc     kernel32:KERNEL32.dll
 0005:00000a00       __imp__GetModuleHandleW@4  004eda00     kernel32:KERNEL32.dll
 0005:00000a04       __imp__TlsGetValue@4       004eda04     kernel32:KERNEL32.dll
 0005:00000a08       __imp__GetModuleFileNameW@12 004eda08     kernel32:KERNEL32.dll
 0005:00000a0c       __imp__HeapValidate@12     004eda0c     kernel32:KERNEL32.dll
 0005:00000a10       __imp__FatalAppExitA@8     004eda10     kernel32:KERNEL32.dll
 0005:00000a14       __imp__LeaveCriticalSection@4 004eda14     kernel32:KERNEL32.dll
 0005:00000a18       __imp__EnterCriticalSection@4 004eda18     kernel32:KERNEL32.dll
 0005:00000a1c       __imp__DeleteCriticalSection@4 004eda1c     kernel32:KERNEL32.dll
 0005:00000a20       __imp__RaiseException@16   004eda20     kernel32:KERNEL32.dll
 0005:00000a24       __imp__GetStartupInfoA@4   004eda24     kernel32:KERNEL32.dll
 0005:00000a28       __imp__VirtualAlloc@16     004eda28     kernel32:KERNEL32.dll
 0005:00000a2c       __imp__GetCommandLineA@0   004eda2c     kernel32:KERNEL32.dll
 0005:00000a30       __imp__RtlUnwind@16        004eda30     kernel32:KERNEL32.dll
 0005:00000a34       __imp__DebugBreak@0        004eda34     kernel32:KERNEL32.dll
 0005:00000a38       __imp__OutputDebugStringA@4 004eda38     kernel32:KERNEL32.dll
 0005:00000a3c       __imp__WriteConsoleW@20    004eda3c     kernel32:KERNEL32.dll
 0005:00000a40       __imp__GetLocaleInfoA@16   004eda40     kernel32:KERNEL32.dll
 0005:00000a44       __imp__IsValidLocale@8     004eda44     kernel32:KERNEL32.dll
 0005:00000a48       __imp__EnumSystemLocalesA@8 004eda48     kernel32:KERNEL32.dll
 0005:00000a4c       __imp__GetUserDefaultLCID@0 004eda4c     kernel32:KERNEL32.dll
 0005:00000a50       __imp__GetLocaleInfoW@16   004eda50     kernel32:KERNEL32.dll
 0005:00000a54       __imp__InterlockedExchange@8 004eda54     kernel32:KERNEL32.dll
 0005:00000a58       __imp__GetTimeZoneInformation@4 004eda58     kernel32:KERNEL32.dll
 0005:00000a5c       __imp__GetConsoleCP@0      004eda5c     kernel32:KERNEL32.dll
 0005:00000a60       __imp__GetConsoleMode@8    004eda60     kernel32:KERNEL32.dll
 0005:00000a64       __imp__SetStdHandle@8      004eda64     kernel32:KERNEL32.dll
 0005:00000a68       __imp__WriteConsoleA@20    004eda68     kernel32:KERNEL32.dll
 0005:00000a6c       __imp__GetConsoleOutputCP@0 004eda6c     kernel32:KERNEL32.dll
 0005:00000a70       __imp__lstrlenA@4          004eda70     kernel32:KERNEL32.dll
 0005:00000a74       __imp__GetProcessHeap@0    004eda74     kernel32:KERNEL32.dll
 0005:00000a78       __imp__VirtualQuery@12     004eda78     kernel32:KERNEL32.dll
 0005:00000a7c       __imp__FlushFileBuffers@4  004eda7c     kernel32:KERNEL32.dll
 0005:00000a80       __imp__CompareStringA@24   004eda80     kernel32:KERNEL32.dll
 0005:00000a84       __imp__CompareStringW@24   004eda84     kernel32:KERNEL32.dll
 0005:00000a88       __imp__HeapReAlloc@16      004eda88     kernel32:KERNEL32.dll
 0005:00000a8c       __imp__SetEnvironmentVariableA@8 004eda8c     kernel32:KERNEL32.dll
 0005:00000a90       \177KERNEL32_NULL_THUNK_DATA 004eda90     kernel32:KERNEL32.dll
 0005:00000b20       __imp__DragFinish@4        004edb20     shell32:SHELL32.dll
 0005:00000b24       __imp__SHGetMalloc@4       004edb24     shell32:SHELL32.dll
 0005:00000b28       __imp__SHBrowseForFolderA@4 004edb28     shell32:SHELL32.dll
 0005:00000b2c       __imp__SHGetPathFromIDListA@8 004edb2c     shell32:SHELL32.dll
 0005:00000b30       __imp__ShellExecuteA@24    004edb30     shell32:SHELL32.dll
 0005:00000b34       __imp__ExtractIconA@12     004edb34     shell32:SHELL32.dll
 0005:00000b38       __imp__ShellExecuteExA@4   004edb38     shell32:SHELL32.dll
 0005:00000b3c       __imp__Shell_NotifyIconA@8 004edb3c     shell32:SHELL32.dll
 0005:00000b40       __imp__DragQueryFileA@16   004edb40     shell32:SHELL32.dll
 0005:00000b44       \177SHELL32_NULL_THUNK_DATA 004edb44     shell32:SHELL32.dll
 0005:00000b74       __imp__MoveWindow@24       004edb74     user32:USER32.dll
 0005:00000b78       __imp__PeekMessageA@20     004edb78     user32:USER32.dll
 0005:00000b7c       __imp__CallWindowProcA@20  004edb7c     user32:USER32.dll
 0005:00000b80       __imp__IsWindow@4          004edb80     user32:USER32.dll
 0005:00000b84       __imp__EndDialog@8         004edb84     user32:USER32.dll
 0005:00000b88       __imp__DestroyWindow@4     004edb88     user32:USER32.dll
 0005:00000b8c       __imp__TranslateAcceleratorA@12 004edb8c     user32:USER32.dll
 0005:00000b90       __imp__IsDialogMessageA@8  004edb90     user32:USER32.dll
 0005:00000b94       __imp__DialogBoxParamA@20  004edb94     user32:USER32.dll
 0005:00000b98       __imp__CreateDialogParamA@20 004edb98     user32:USER32.dll
 0005:00000b9c       __imp__GetWindowWord@8     004edb9c     user32:USER32.dll
 0005:00000ba0       __imp__GetMessageA@16      004edba0     user32:USER32.dll
 0005:00000ba4       __imp__TranslateMessage@4  004edba4     user32:USER32.dll
 0005:00000ba8       __imp__DispatchMessageA@4  004edba8     user32:USER32.dll
 0005:00000bac       __imp__SetDlgItemTextA@12  004edbac     user32:USER32.dll
 0005:00000bb0       __imp__GetParent@4         004edbb0     user32:USER32.dll
 0005:00000bb4       __imp__GetDlgItem@8        004edbb4     user32:USER32.dll
 0005:00000bb8       __imp__GetWindowRect@8     004edbb8     user32:USER32.dll
 0005:00000bbc       __imp__GetClientRect@8     004edbbc     user32:USER32.dll
 0005:00000bc0       __imp__CreateWindowExA@48  004edbc0     user32:USER32.dll
 0005:00000bc4       __imp__SendDlgItemMessageA@20 004edbc4     user32:USER32.dll
 0005:00000bc8       __imp__GetWindow@8         004edbc8     user32:USER32.dll
 0005:00000bcc       __imp__SetCapture@4        004edbcc     user32:USER32.dll
 0005:00000bd0       __imp__SetWindowWord@12    004edbd0     user32:USER32.dll
 0005:00000bd4       __imp__SetActiveWindow@4   004edbd4     user32:USER32.dll
 0005:00000bd8       __imp__GetForegroundWindow@0 004edbd8     user32:USER32.dll
 0005:00000bdc       __imp__GetWindowThreadProcessId@8 004edbdc     user32:USER32.dll
 0005:00000be0       __imp__AttachThreadInput@12 004edbe0     user32:USER32.dll
 0005:00000be4       __imp__SystemParametersInfoA@16 004edbe4     user32:USER32.dll
 0005:00000be8       __imp__BringWindowToTop@4  004edbe8     user32:USER32.dll
 0005:00000bec       __imp__GetDlgItemTextA@16  004edbec     user32:USER32.dll
 0005:00000bf0       __imp__DefWindowProcA@16   004edbf0     user32:USER32.dll
 0005:00000bf4       __imp__UpdateWindow@4      004edbf4     user32:USER32.dll
 0005:00000bf8       __imp__GetCursorPos@4      004edbf8     user32:USER32.dll
 0005:00000bfc       __imp__ScreenToClient@8    004edbfc     user32:USER32.dll
 0005:00000c00       __imp__ReleaseCapture@0    004edc00     user32:USER32.dll
 0005:00000c04       __imp__GetWindowLongA@8    004edc04     user32:USER32.dll
 0005:00000c08       __imp__SetWindowLongA@12   004edc08     user32:USER32.dll
 0005:00000c0c       __imp__ModifyMenuA@20      004edc0c     user32:USER32.dll
 0005:00000c10       __imp__BeginDeferWindowPos@4 004edc10     user32:USER32.dll
 0005:00000c14       __imp__IsWindowEnabled@4   004edc14     user32:USER32.dll
 0005:00000c18       __imp__DeferWindowPos@32   004edc18     user32:USER32.dll
 0005:00000c1c       __imp__EndDeferWindowPos@4 004edc1c     user32:USER32.dll
 0005:00000c20       __imp__IsWindowVisible@4   004edc20     user32:USER32.dll
 0005:00000c24       __imp__IsDlgButtonChecked@8 004edc24     user32:USER32.dll
 0005:00000c28       __imp__InvalidateRgn@12    004edc28     user32:USER32.dll
 0005:00000c2c       __imp__GetWindowTextA@12   004edc2c     user32:USER32.dll
 0005:00000c30       __imp__RegisterHotKey@16   004edc30     user32:USER32.dll
 0005:00000c34       __imp__UnregisterHotKey@8  004edc34     user32:USER32.dll
 0005:00000c38       __imp__SetCursor@4         004edc38     user32:USER32.dll
 0005:00000c3c       __imp__PostMessageA@16     004edc3c     user32:USER32.dll
 0005:00000c40       __imp__EnableWindow@8      004edc40     user32:USER32.dll
 0005:00000c44       __imp__ShowWindow@8        004edc44     user32:USER32.dll
 0005:00000c48       __imp__GetWindowPlacement@8 004edc48     user32:USER32.dll
 0005:00000c4c       __imp__SetWindowPlacement@8 004edc4c     user32:USER32.dll
 0005:00000c50       __imp__SetFocus@4          004edc50     user32:USER32.dll
 0005:00000c54       __imp__SetClassLongA@12    004edc54     user32:USER32.dll
 0005:00000c58       __imp__FlashWindow@8       004edc58     user32:USER32.dll
 0005:00000c5c       __imp__SetWindowTextA@8    004edc5c     user32:USER32.dll
 0005:00000c60       __imp__GetMessagePos@0     004edc60     user32:USER32.dll
 0005:00000c64       __imp__TrackPopupMenu@28   004edc64     user32:USER32.dll
 0005:00000c68       __imp__MessageBeep@4       004edc68     user32:USER32.dll
 0005:00000c6c       __imp__CreateMenu@0        004edc6c     user32:USER32.dll
 0005:00000c70       __imp__InsertMenuA@20      004edc70     user32:USER32.dll
 0005:00000c74       __imp__GetMenuItemID@8     004edc74     user32:USER32.dll
 0005:00000c78       __imp__GetSystemMenu@8     004edc78     user32:USER32.dll
 0005:00000c7c       __imp__DeleteMenu@12       004edc7c     user32:USER32.dll
 0005:00000c80       __imp__LoadMenuA@8         004edc80     user32:USER32.dll
 0005:00000c84       __imp__GetSubMenu@8        004edc84     user32:USER32.dll
 0005:00000c88       __imp__GetMenuItemCount@4  004edc88     user32:USER32.dll
 0005:00000c8c       __imp__GetMenuStringA@20   004edc8c     user32:USER32.dll
 0005:00000c90       __imp__AppendMenuA@16      004edc90     user32:USER32.dll
 0005:00000c94       __imp__DestroyMenu@4       004edc94     user32:USER32.dll
 0005:00000c98       __imp__GetAsyncKeyState@4  004edc98     user32:USER32.dll
 0005:00000c9c       __imp__KillTimer@8         004edc9c     user32:USER32.dll
 0005:00000ca0       __imp__SetTimer@16         004edca0     user32:USER32.dll
 0005:00000ca4       __imp__PostQuitMessage@4   004edca4     user32:USER32.dll
 0005:00000ca8       __imp__RegisterWindowMessageA@4 004edca8     user32:USER32.dll
 0005:00000cac       __imp__LoadAcceleratorsA@8 004edcac     user32:USER32.dll
 0005:00000cb0       __imp__GetSystemMetrics@4  004edcb0     user32:USER32.dll
 0005:00000cb4       __imp__SendMessageA@16     004edcb4     user32:USER32.dll
 0005:00000cb8       __imp__MessageBoxA@16      004edcb8     user32:USER32.dll
 0005:00000cbc       __imp__LoadIconA@8         004edcbc     user32:USER32.dll
 0005:00000cc0       __imp__LoadCursorA@8       004edcc0     user32:USER32.dll
 0005:00000cc4       __imp__FindWindowA@8       004edcc4     user32:USER32.dll
 0005:00000cc8       __imp__RegisterClassA@4    004edcc8     user32:USER32.dll
 0005:00000ccc       __imp__SetForegroundWindow@4 004edccc     user32:USER32.dll
 0005:00000cd0       __imp__wsprintfA           004edcd0     user32:USER32.dll
 0005:00000cd4       __imp__CreatePopupMenu@0   004edcd4     user32:USER32.dll
 0005:00000cd8       \177USER32_NULL_THUNK_DATA 004edcd8     user32:USER32.dll
 0005:00000d48       __imp__PlaySoundA@12       004edd48     winmm:WINMM.dll
 0005:00000d4c       \177WINMM_NULL_THUNK_DATA  004edd4c     winmm:WINMM.dll
 0005:00000d78       __imp__inet_ntoa@4         004edd78     wsock32:WSOCK32.dll
 0005:00000d7c       __imp__ntohl@4             004edd7c     wsock32:WSOCK32.dll
 0005:00000d80       __imp__connect@12          004edd80     wsock32:WSOCK32.dll
 0005:00000d84       __imp__accept@12           004edd84     wsock32:WSOCK32.dll
 0005:00000d88       __imp__recvfrom@24         004edd88     wsock32:WSOCK32.dll
 0005:00000d8c       __imp__sendto@24           004edd8c     wsock32:WSOCK32.dll
 0005:00000d90       __imp__WSAAsyncSelect@16   004edd90     wsock32:WSOCK32.dll
 0005:00000d94       __imp__WSACleanup@0        004edd94     wsock32:WSOCK32.dll
 0005:00000d98       __imp__WSAStartup@8        004edd98     wsock32:WSOCK32.dll
 0005:00000d9c       __imp__socket@12           004edd9c     wsock32:WSOCK32.dll
 0005:00000da0       __imp__bind@12             004edda0     wsock32:WSOCK32.dll
 0005:00000da4       __imp__ioctlsocket@12      004edda4     wsock32:WSOCK32.dll
 0005:00000da8       __imp__setsockopt@20       004edda8     wsock32:WSOCK32.dll
 0005:00000dac       __imp__listen@8            004eddac     wsock32:WSOCK32.dll
 0005:00000db0       __imp__gethostname@8       004eddb0     wsock32:WSOCK32.dll
 0005:00000db4       __imp__gethostbyname@4     004eddb4     wsock32:WSOCK32.dll
 0005:00000db8       __imp__WSAGetLastError@0   004eddb8     wsock32:WSOCK32.dll
 0005:00000dbc       __imp__inet_addr@4         004eddbc     wsock32:WSOCK32.dll
 0005:00000dc0       __imp__send@16             004eddc0     wsock32:WSOCK32.dll
 0005:00000dc4       __imp__select@20           004eddc4     wsock32:WSOCK32.dll
 0005:00000dc8       __imp__recv@16             004eddc8     wsock32:WSOCK32.dll
 0005:00000dcc       __imp__closesocket@4       004eddcc     wsock32:WSOCK32.dll
 0005:00000dd0       __imp__htons@4             004eddd0     wsock32:WSOCK32.dll
 0005:00000dd4       \177WSOCK32_NULL_THUNK_DATA 004eddd4     wsock32:WSOCK32.dll
 0005:00000e10       __imp__CoUninitialize@0    004ede10     ole32:ole32.dll
 0005:00000e14       __imp__CoInitialize@4      004ede14     ole32:ole32.dll
 0005:00000e18       \177ole32_NULL_THUNK_DATA  004ede18     ole32:ole32.dll

 entry point at        0002:0000164e

